

Microchip MPLAB XC8 Assembler V2.46 build 20240104201356 
                                                                                               Thu Jun 13 20:34:49 2024

Microchip MPLAB XC8 C Compiler v2.46 (Free license) build 20240104201356 Og1 
     1                           	processor	18F57Q43
     2                           	fnconf	rparam,??,?,0
     3                           	pagewidth 120
     4                           	opt	flic
     5                           	psect	idataCOMRAM,global,class=CODE,delta=1,noexec
     6                           	psect	smallconst,global,reloc=2,class=SMALLCONST,delta=1,noexec
     7                           	psect	cinit,global,reloc=2,class=CODE,delta=1
     8                           	psect	bssCOMRAM,global,class=COMRAM,space=1,delta=1,lowdata,noexec
     9                           	psect	dataCOMRAM,global,class=COMRAM,space=1,delta=1,lowdata,noexec
    10                           	psect	bssBANK5,global,class=BANK5,space=1,delta=1,lowdata,noexec
    11                           	psect	cstackCOMRAM,global,class=COMRAM,space=1,delta=1,lowdata,noexec
    12                           	psect	text0,global,reloc=2,class=CODE,delta=1
    13                           	psect	text1,global,reloc=2,class=CODE,delta=1,group=3
    14                           	psect	text2,global,reloc=2,class=CODE,delta=1,group=1
    15                           	psect	text3,global,reloc=2,class=CODE,delta=1,group=1
    16                           	psect	text4,global,reloc=2,class=CODE,delta=1,group=3
    17                           	psect	text5,global,reloc=2,class=CODE,delta=1
    18                           	psect	text6,global,reloc=2,class=CODE,delta=1
    19                           	psect	text7,global,reloc=2,class=CODE,delta=1
    20                           	psect	text8,global,reloc=2,class=CODE,delta=1
    21                           	psect	text9,global,reloc=2,class=CODE,delta=1
    22                           	psect	text10,global,reloc=2,class=CODE,delta=1
    23                           	psect	text11,global,reloc=2,class=CODE,delta=1
    24                           	psect	text12,global,reloc=2,class=CODE,delta=1
    25                           	psect	text13,global,reloc=2,class=CODE,delta=1
    26                           	psect	text14,global,reloc=2,class=CODE,delta=1
    27                           	psect	text15,global,reloc=2,class=CODE,delta=1
    28                           	psect	text16,global,reloc=2,class=CODE,delta=1
    29                           	psect	text17,global,reloc=2,class=CODE,delta=1
    30                           	psect	text18,global,reloc=2,class=CODE,delta=1
    31                           	psect	text19,global,reloc=2,class=CODE,delta=1,inline
    32                           	psect	text20,global,reloc=2,class=CODE,delta=1
    33                           	psect	text21,global,reloc=2,class=CODE,delta=1
    34                           	psect	text22,global,reloc=2,class=CODE,delta=1
    35                           	psect	text23,global,reloc=2,class=CODE,delta=1
    36                           	psect	text24,global,reloc=2,class=CODE,delta=1
    37                           	psect	text25,global,reloc=2,class=CODE,delta=1,inline
    38                           	psect	text26,global,reloc=2,class=CODE,delta=1
    39                           	psect	text27,global,reloc=2,class=CODE,delta=1
    40                           	psect	text28,global,reloc=2,class=CODE,delta=1
    41                           	psect	text29,global,reloc=2,class=CODE,delta=1
    42                           	psect	text30,global,reloc=2,class=CODE,delta=1
    43                           	psect	text31,global,reloc=2,class=CODE,delta=1
    44                           	psect	text32,global,reloc=2,class=CODE,delta=1
    45                           	psect	text33,global,reloc=2,class=CODE,delta=1
    46                           	psect	text34,global,reloc=2,class=CODE,delta=1
    47                           	psect	text35,global,reloc=2,class=CODE,delta=1
    48                           	psect	text36,global,reloc=2,class=CODE,delta=1
    49                           	psect	text37,global,reloc=2,class=CODE,delta=1
    50                           	psect	text38,global,reloc=2,class=CODE,delta=1
    51                           	psect	text39,global,reloc=2,class=CODE,delta=1
    52                           	psect	text40,global,reloc=2,class=CODE,delta=1
    53                           	psect	text41,global,reloc=2,class=CODE,delta=1,inline
    54                           	psect	text42,global,reloc=2,class=CODE,delta=1
    55                           	psect	text43,global,reloc=2,class=CODE,delta=1
    56                           	psect	text44,global,reloc=2,class=CODE,delta=1
    57                           	psect	text45,global,reloc=2,class=CODE,delta=1
    58                           	psect	text46,global,reloc=2,class=CODE,delta=1
    59                           	psect	text47,global,reloc=2,class=CODE,delta=1
    60                           	psect	text48,global,reloc=2,class=CODE,delta=1
    61                           	psect	text49,global,reloc=2,class=CODE,delta=1
    62                           	psect	text50,global,reloc=2,class=CODE,delta=1,inline
    63                           	psect	text51,global,reloc=2,class=CODE,delta=1,inline
    64                           	psect	text52,global,reloc=2,class=CODE,delta=1,inline
    65                           	psect	text53,global,reloc=2,class=CODE,delta=1,inline
    66                           	psect	text54,global,reloc=2,class=CODE,delta=1,inline
    67                           	psect	text55,global,reloc=2,class=CODE,delta=1,inline
    68                           	psect	ivt0x8,global,reloc=2,class=CODE,delta=1,noexec,keep,optim=
    69                           	psect	intsave_regs,global,class=BIGRAM,space=1,delta=1,noexec
    70                           	psect	rparam,global,class=COMRAM,space=1,delta=1,noexec
    71                           	psect	config,global,abs,ovrld,class=CONFIG,space=4,delta=1,noexec
    72   000000                     
    73                           ; Generated 18/12/2023 GMT
    74                           ; 
    75                           ; Copyright © 2023, Microchip Technology Inc. and its subsidiaries ("Microchip")
    76                           ; All rights reserved.
    77                           ; 
    78                           ; This software is developed by Microchip Technology Inc. and its subsidiaries ("Microch
      +                          ip").
    79                           ; 
    80                           ; Redistribution and use in source and binary forms, with or without modification, are
    81                           ; permitted provided that the following conditions are met:
    82                           ; 
    83                           ;     1. Redistributions of source code must retain the above copyright notice, this lis
      +                          t of
    84                           ;        conditions and the following disclaimer.
    85                           ; 
    86                           ;     2. Redistributions in binary form must reproduce the above copyright notice, this 
      +                          list
    87                           ;        of conditions and the following disclaimer in the documentation and/or other
    88                           ;        materials provided with the distribution. Publication is not required when
    89                           ;        this file is used in an embedded application.
    90                           ; 
    91                           ;     3. Microchip's name may not be used to endorse or promote products derived from th
      +                          is
    92                           ;        software without specific prior written permission.
    93                           ; 
    94                           ; THIS SOFTWARE IS PROVIDED BY MICROCHIP "AS IS" AND ANY EXPRESS OR IMPLIED WARRANTIES,
    95                           ; INCLUDING, BUT NOT LIMITED TO, THE IMPLIED WARRANTIES OF MERCHANTABILITY AND FITNESS F
      +                          OR
    96                           ; PURPOSE ARE DISCLAIMED.  IN NO EVENT SHALL MICROCHIP BE LIABLE FOR ANY DIRECT, INDIREC
      +                          T,
    97                           ; INCIDENTAL, SPECIAL, EXEMPLARY, OR CONSEQUENTIAL DAMAGES (INCLUDING BUT NOT LIMITED TO
    98                           ; PROCUREMENT OF SUBSTITUTE GOODS OR SERVICES; LOSS OF USE, DATA OR PROFITS; OR BUSINESS
    99                           ; INTERRUPTION) HOWSOEVER CAUSED AND ON ANY THEORY OF LIABILITY, WHETHER IN CONTRACT, ST
      +                          RICT
   100                           ; LIABILITY, OR TORT (INCLUDING NEGLIGENCE OR OTHERWISE) ARISING IN ANY WAY OUT OF THE U
      +                          SE OF
   101                           ; THIS SOFTWARE, EVEN IF ADVISED OF THE POSSIBILITY OF SUCH DAMAGE.
   102                           ; 
   103                           ; 
   104                           ; Code-generator required, PIC18F57Q43 Definitions
   105                           ; 
   106                           ; SFR Addresses
   107   000000                     
   108 ;; Function _I2C1_Deinitialize is unused but had its address taken
   109   000000                     
   110 ;; Function _I2C1_Read is unused but had its address taken
   111   000000                     
   112 ;; Function _I2C1_WriteRead is unused but had its address taken
   113   000000                     
   114 ;; Function _I2C1_ErrorGet is unused but had its address taken
   115   000000                     
   116 ;; Function _INT0_DefaultInterruptHandler is unused but had its address taken
   117   000000                     
   118 ;; Function _INT1_DefaultInterruptHandler is unused but had its address taken
   119   000000                     
   120 ;; Function _INT2_DefaultInterruptHandler is unused but had its address taken
   121   000000                     
   122 ;; Function _UART1_Deinitialize is unused but had its address taken
   123   000000                     
   124 ;; Function _UART1_TransmitEnable is unused but had its address taken
   125   000000                     
   126 ;; Function _UART1_TransmitDisable is unused but had its address taken
   127   000000                     
   128 ;; Function _UART1_AutoBaudSet is unused but had its address taken
   129   000000                     
   130 ;; Function _UART1_AutoBaudQuery is unused but had its address taken
   131   000000                     
   132 ;; Function _UART1_IsRxReady is unused but had its address taken
   133   000000                     
   134 ;; Function _UART1_IsTxDone is unused but had its address taken
   135   000000                     
   136 ;; Function _UART1_ErrorGet is unused but had its address taken
   137   000000                     
   138 ;; Function _UART1_Read is unused but had its address taken
   139   000000                     
   140 ;; Function _UART1_DefaultFramingErrorCallback is unused but had its address taken
   141   000000                     
   142 ;; Function _UART1_DefaultOverrunErrorCallback is unused but had its address taken
   143   000000                     
   144 ;; Function _UART1_DefaultParityErrorCallback is unused but had its address taken
   145   000000                     
   146                           	psect	idataCOMRAM
   147   00318A                     __pidataCOMRAM:
   148                           	callstack 0
   149                           
   150                           ;initializer for _I2C
   151   00318A  49                 	db	low _I2C1_Host
   152                           
   153                           	psect	smallconst
   154   002500                     __psmallconst:
   155                           	callstack 0
   156   002500  00                 	db	0
   157   002501                     _UART1:
   158                           	callstack 0
   159   002501  DA                 	db	low _UART1_Initialize
   160   002502  2B                 	db	high _UART1_Initialize
   161   002503  00                 	db	low (_UART1_Initialize shr (0+16))
   162   002504  00                 	db	0
   163   002505  00                 	db	0
   164   002506  00                 	db	0
   165   002507  00                 	db	0
   166   002508  00                 	db	0
   167   002509  00                 	db	0
   168   00250A  2C                 	db	low _UART1_Write
   169   00250B  31                 	db	high _UART1_Write
   170   00250C  00                 	db	low (_UART1_Write shr (0+16))
   171   00250D  00                 	db	0
   172   00250E  00                 	db	0
   173   00250F  00                 	db	0
   174   002510  84                 	db	low _UART1_IsTxReady
   175   002511  2E                 	db	high _UART1_IsTxReady
   176   002512  00                 	db	low (_UART1_IsTxReady shr (0+16))
   177   002513  00                 	db	0
   178   002514  00                 	db	0
   179   002515  00                 	db	0
   180   002516  00                 	db	0
   181   002517  00                 	db	0
   182   002518  00                 	db	0
   183   002519  00                 	db	0
   184   00251A  00                 	db	0
   185   00251B  00                 	db	0
   186   00251C  00                 	db	0
   187   00251D  00                 	db	0
   188   00251E  00                 	db	0
   189   00251F  00                 	db	0
   190   002520  00                 	db	0
   191   002521  00                 	db	0
   192   002522  00                 	db	0
   193   002523  00                 	db	0
   194   002524  00                 	db	0
   195   002525  00                 	db	0
   196   002526  00                 	db	0
   197   002527  00                 	db	0
   198   002528  00                 	db	0
   199   002529  00                 	db	0
   200   00252A  00                 	db	0
   201   00252B  00                 	db	0
   202   00252C  00                 	db	0
   203   00252D  00                 	db	0
   204   00252E  00                 	db	0
   205   00252F  00                 	db	0
   206   002530  00                 	db	0
   207   002531  00                 	db	0
   208   002532  00                 	db	0
   209   002533  00                 	db	0
   210   002534  00                 	db	0
   211   002535  00                 	db	0
   212   002536  00                 	db	0
   213   002537  00                 	db	0
   214   002538  00                 	db	0
   215   002539  00                 	db	0
   216   00253A  00                 	db	0
   217   00253B  00                 	db	0
   218   00253C  00                 	db	0
   219   00253D  88                 	db	low _UART1_FramingErrorCallbackRegister
   220   00253E  2F                 	db	high _UART1_FramingErrorCallbackRegister
   221   00253F  00                 	db	low (_UART1_FramingErrorCallbackRegister shr (0+16))
   222   002540  66                 	db	low _UART1_OverrunErrorCallbackRegister
   223   002541  2F                 	db	high _UART1_OverrunErrorCallbackRegister
   224   002542  00                 	db	low (_UART1_OverrunErrorCallbackRegister shr (0+16))
   225   002543  44                 	db	low _UART1_ParityErrorCallbackRegister
   226   002544  2F                 	db	high _UART1_ParityErrorCallbackRegister
   227   002545  00                 	db	low (_UART1_ParityErrorCallbackRegister shr (0+16))
   228   002546  00                 	db	0
   229   002547  00                 	db	0
   230   002548  00                 	db	0
   231   002549                     __end_of_UART1:
   232                           	callstack 0
   233   002549                     _I2C1_Host:
   234                           	callstack 0
   235   002549  62                 	db	low _I2C1_Initialize
   236   00254A  2C                 	db	high _I2C1_Initialize
   237   00254B  00                 	db	low (_I2C1_Initialize shr (0+16))
   238   00254C  00                 	db	0
   239   00254D  00                 	db	0
   240   00254E  00                 	db	0
   241   00254F  14                 	db	low _I2C1_Write
   242   002550  2D                 	db	high _I2C1_Write
   243   002551  00                 	db	low (_I2C1_Write shr (0+16))
   244   002552  00                 	db	0
   245   002553  00                 	db	0
   246   002554  00                 	db	0
   247   002555  00                 	db	0
   248   002556  00                 	db	0
   249   002557  00                 	db	0
   250   002558  00                 	db	0
   251   002559  00                 	db	0
   252   00255A  00                 	db	0
   253   00255B  00                 	db	0
   254   00255C  00                 	db	0
   255   00255D  00                 	db	0
   256   00255E  58                 	db	low _I2C1_IsBusy
   257   00255F  2E                 	db	high _I2C1_IsBusy
   258   002560  00                 	db	low (_I2C1_IsBusy shr (0+16))
   259   002561  AA                 	db	low _I2C1_CallbackRegister
   260   002562  2F                 	db	high _I2C1_CallbackRegister
   261   002563  00                 	db	low (_I2C1_CallbackRegister shr (0+16))
   262   002564  00                 	db	0
   263   002565  00                 	db	0
   264   002566  00                 	db	0
   265   002567                     __end_of_I2C1_Host:
   266                           	callstack 0
   267   000000                     _IOCEF	set	1063
   268   000000                     _IOCEN	set	1062
   269   000000                     _IOCEP	set	1061
   270   000000                     _IOCCF	set	1047
   271   000000                     _IOCCN	set	1046
   272   000000                     _IOCCP	set	1045
   273   000000                     _IOCBF	set	1039
   274   000000                     _IOCBN	set	1038
   275   000000                     _IOCBP	set	1037
   276   000000                     _IOCAF	set	1031
   277   000000                     _IOCAN	set	1030
   278   000000                     _IOCAP	set	1029
   279   000000                     _RB2I2C	set	648
   280   000000                     _RB1I2C	set	649
   281   000000                     _INLVLE	set	1060
   282   000000                     _INLVLC	set	1044
   283   000000                     _INLVLB	set	1036
   284   000000                     _INLVLA	set	1028
   285   000000                     _SLRCONE	set	1059
   286   000000                     _SLRCONC	set	1043
   287   000000                     _SLRCONB	set	1035
   288   000000                     _SLRCONA	set	1027
   289   000000                     _ODCONE	set	1058
   290   000000                     _ODCONC	set	1042
   291   000000                     _ODCONB	set	1034
   292   000000                     _ODCONA	set	1026
   293   000000                     _WPUE	set	1057
   294   000000                     _WPUC	set	1041
   295   000000                     _WPUB	set	1033
   296   000000                     _WPUA	set	1025
   297   000000                     _ANSELF	set	1064
   298   000000                     _ANSELD	set	1048
   299   000000                     _ANSELC	set	1040
   300   000000                     _ANSELB	set	1032
   301   000000                     _OSCTUNE	set	176
   302   000000                     _OSCFRQ	set	177
   303   000000                     _OSCEN	set	179
   304   000000                     _I2C1STAT1	set	665
   305   000000                     _I2C1RXB	set	651
   306   000000                     _I2C1TXB	set	652
   307   000000                     _I2C1STAT0bits	set	664
   308   000000                     _I2C1ERR	set	663
   309   000000                     _I2C1PIE	set	667
   310   000000                     _I2C1PIR	set	666
   311   000000                     _I2C1CLK	set	668
   312   000000                     _I2C1CON2	set	662
   313   000000                     _I2C1CON1	set	661
   314   000000                     _U1FIFObits	set	688
   315   000000                     _U1ERRIRbits	set	690
   316   000000                     _U1UIRbits	set	689
   317   000000                     _U1CON0bits	set	683
   318   000000                     _U1CON1bits	set	684
   319   000000                     _I2C1STAT1bits	set	665
   320   000000                     _I2C1CON1bits	set	661
   321   000000                     _I2C1ERRbits	set	663
   322   000000                     _I2C1PIRbits	set	666
   323   000000                     _I2C1CON0bits	set	660
   324   000000                     _I2C1PIEbits	set	667
   325   000000                     _ACTCON	set	172
   326   000000                     _OSCCON1	set	173
   327   000000                     _RC4I2C	set	646
   328   000000                     _RC3I2C	set	647
   329   000000                     _I2C1CNT	set	653
   330   000000                     _I2C1CON0	set	660
   331   000000                     _U1RXB	set	673
   332   000000                     _ANSELA	set	1024
   333   000000                     _PIE7bits	set	1189
   334   000000                     _I2C1ADB1	set	655
   335   000000                     _PIR1bits	set	1199
   336   000000                     _INTCON0bits	set	1238
   337   000000                     _OSCCON3	set	175
   338   000000                     _RC3PPS	set	532
   339   000000                     _RF0PPS	set	553
   340   000000                     _U1RXPPS	set	626
   341   000000                     _PIR6bits	set	1204
   342   000000                     _PIR7bits	set	1205
   343   000000                     _PIR10bits	set	1208
   344   000000                     _LATA	set	1214
   345   000000                     _TRISA	set	1222
   346   000000                     _LATF	set	1219
   347   000000                     _LATE	set	1218
   348   000000                     _LATD	set	1217
   349   000000                     _LATC	set	1216
   350   000000                     _LATB	set	1215
   351   000000                     _TRISF	set	1227
   352   000000                     _TRISE	set	1226
   353   000000                     _TRISD	set	1225
   354   000000                     _TRISC	set	1224
   355   000000                     _TRISB	set	1223
   356   000000                     _INLVLD	set	1052
   357   000000                     _SLRCOND	set	1051
   358   000000                     _ODCOND	set	1050
   359   000000                     _WPUD	set	1049
   360   000000                     _ANSELE	set	1056
   361   000000                     _INLVLF	set	1068
   362   000000                     _SLRCONF	set	1067
   363   000000                     _ODCONF	set	1066
   364   000000                     _WPUF	set	1065
   365   000000                     _I2C1SDAPPS	set	624
   366   000000                     _I2C1SCLPPS	set	625
   367   000000                     _RC4PPS	set	533
   368   000000                     _U1ERRIE	set	691
   369   000000                     _U1ERRIR	set	690
   370   000000                     _U1UIR	set	689
   371   000000                     _U1FIFO	set	688
   372   000000                     _U1BRGH	set	687
   373   000000                     _U1BRGL	set	686
   374   000000                     _U1CON2	set	685
   375   000000                     _U1CON1	set	684
   376   000000                     _U1CON0	set	683
   377   000000                     _U1P3H	set	682
   378   000000                     _U1P3L	set	681
   379   000000                     _U1P2H	set	680
   380   000000                     _U1P2L	set	679
   381   000000                     _U1P1H	set	678
   382   000000                     _U1P1L	set	677
   383   000000                     _U1TXCHK	set	676
   384   000000                     _U1TXB	set	675
   385   000000                     _U1RXCHK	set	674
   386   002567                     STR_4:
   387                           
   388                           ; BSR set to: 2
   389   002567  53                 	db	83	;'S'
   390   002568  63                 	db	99	;'c'
   391   002569  61                 	db	97	;'a'
   392   00256A  6E                 	db	110	;'n'
   393   00256B  6E                 	db	110	;'n'
   394   00256C  65                 	db	101	;'e'
   395   00256D  72                 	db	114	;'r'
   396   00256E  20                 	db	32
   397   00256F  66                 	db	102	;'f'
   398   002570  69                 	db	105	;'i'
   399   002571  6E                 	db	110	;'n'
   400   002572  61                 	db	97	;'a'
   401   002573  6C                 	db	108	;'l'
   402   002574  69                 	db	105	;'i'
   403   002575  7A                 	db	122	;'z'
   404   002576  61                 	db	97	;'a'
   405   002577  64                 	db	100	;'d'
   406   002578  6F                 	db	111	;'o'
   407   002579  00                 	db	0
   408   00257A                     STR_1:
   409                           
   410                           ; BSR set to: 2
   411   00257A  53                 	db	83	;'S'
   412   00257B  63                 	db	99	;'c'
   413   00257C  61                 	db	97	;'a'
   414   00257D  6E                 	db	110	;'n'
   415   00257E  65                 	db	101	;'e'
   416   00257F  72                 	db	114	;'r'
   417   002580  20                 	db	32
   418   002581  49                 	db	73	;'I'
   419   002582  32                 	db	50	;'2'
   420   002583  43                 	db	67	;'C'
   421   002584  20                 	db	32
   422   002585  0A                 	db	10
   423   002586  0D                 	db	13
   424   002587  00                 	db	0
   425   002588                     STR_3:
   426                           
   427                           ; BSR set to: 2
   428   002588  30                 	db	48	;'0'
   429   002589  78                 	db	120	;'x'
   430   00258A  25                 	db	37
   431   00258B  58                 	db	88	;'X'
   432   00258C  0A                 	db	10
   433   00258D  0D                 	db	13
   434   00258E  00                 	db	0
   435   00258F                     STR_2:
   436                           
   437                           ; BSR set to: 2
   438   00258F  2D                 	db	45
   439   002590  0A                 	db	10
   440   002591  0D                 	db	13
   441   002592  00                 	db	0
   442   002593  00                 	db	0	; dummy byte at the end
   443   000000                     
   444                           ; #config settings
   445                           
   446                           	psect	cinit
   447   002DA2                     __pcinit:
   448                           	callstack 0
   449   002DA2                     start_initialization:
   450                           	callstack 0
   451   002DA2                     __initialization:
   452                           	callstack 0
   453                           
   454                           ; Initialize objects allocated to COMRAM (1 bytes)
   455                           ; load TBLPTR registers with __pidataCOMRAM
   456   002DA2  0E8A               	movlw	low __pidataCOMRAM
   457   002DA4  6EF6               	movwf	tblptrl,c
   458   002DA6  0E31               	movlw	high __pidataCOMRAM
   459   002DA8  6EF7               	movwf	tblptrh,c
   460   002DAA  0E00               	movlw	low (__pidataCOMRAM shr (0+16))
   461   002DAC  6EF8               	movwf	tblptru,c
   462   002DAE  0009               	tblrd		*+	;fetch initializer
   463   002DB0  C4F5 F556          	movff	tablat,__pdataCOMRAM
   464                           
   465                           ; Clear objects allocated to BANK5 (32 bytes)
   466   002DB4  EE01  F160         	lfsr	0,__pbssBANK5
   467   002DB8  0E20               	movlw	32
   468   002DBA                     clear_0:
   469   002DBA  6AEE               	clrf	postinc0,c
   470   002DBC  06E8               	decf	wreg,f,c
   471   002DBE  E1FD               	bnz	clear_0
   472                           
   473                           ; Clear objects allocated to COMRAM (41 bytes)
   474   002DC0  EE01  F12D         	lfsr	0,__pbssCOMRAM
   475   002DC4  0E29               	movlw	41
   476   002DC6                     clear_1:
   477   002DC6  6AEE               	clrf	postinc0,c
   478   002DC8  06E8               	decf	wreg,f,c
   479   002DCA  E1FD               	bnz	clear_1
   480                           
   481                           ;
   482                           ; Setup IVTBASE
   483                           ;
   484   002DCC  0104               	movlb	4
   485   002DCE  0E08               	movlw	(ivt0x8_base shr 0)& (0+255)
   486   002DD0  6F5D               	movwf	93,b
   487   002DD2  0E00               	movlw	(ivt0x8_base shr (0+8))& (0+255)
   488   002DD4  6F5E               	movwf	94,b
   489   002DD6  0E00               	movlw	(ivt0x8_base shr (0+16))& (0+255)
   490   002DD8  6F5F               	movwf	95,b
   491   002DDA                     end_of_initialization:
   492                           	callstack 0
   493   002DDA                     __end_of__initialization:
   494                           	callstack 0
   495   002DDA  0100               	movlb	0
   496   002DDC  EF82  F014         	goto	_main	;jump to C main() function
   497                           
   498                           	psect	bssCOMRAM
   499   00052D                     __pbssCOMRAM:
   500                           	callstack 0
   501   00052D                     _i2c1Status:
   502                           	callstack 0
   503   00052D                     	ds	13
   504   00053A                     _UART1_ParityErrorHandler:
   505                           	callstack 0
   506   00053A                     	ds	3
   507   00053D                     _UART1_OverrunErrorHandler:
   508                           	callstack 0
   509   00053D                     	ds	3
   510   000540                     _UART1_FramingErrorHandler:
   511                           	callstack 0
   512   000540                     	ds	3
   513   000543                     _INT2_InterruptHandler:
   514                           	callstack 0
   515   000543                     	ds	3
   516   000546                     _INT1_InterruptHandler:
   517                           	callstack 0
   518   000546                     	ds	3
   519   000549                     _INT0_InterruptHandler:
   520                           	callstack 0
   521   000549                     	ds	3
   522   00054C                     _I2C1_Callback:
   523                           	callstack 0
   524   00054C                     	ds	3
   525   00054F                     _width:
   526                           	callstack 0
   527   00054F                     	ds	2
   528   000551                     _prec:
   529                           	callstack 0
   530   000551                     	ds	2
   531   000553                     _uart1RxLastError:
   532                           	callstack 0
   533   000553                     	ds	2
   534   000555                     _flags:
   535                           	callstack 0
   536   000555                     	ds	1
   537                           
   538                           	psect	dataCOMRAM
   539   000556                     __pdataCOMRAM:
   540                           	callstack 0
   541   000556                     _I2C:
   542                           	callstack 0
   543   000556                     	ds	1
   544                           
   545                           	psect	bssBANK5
   546   000560                     __pbssBANK5:
   547                           	callstack 0
   548   000560                     _dbuf:
   549                           	callstack 0
   550   000560                     	ds	32
   551                           
   552                           	psect	cstackCOMRAM
   553   000501                     __pcstackCOMRAM:
   554                           	callstack 0
   555   000501                     I2C1_DataTransmit@data:
   556                           	callstack 0
   557   000501                     i2I2C1_AddrTransmit@addr:
   558                           	callstack 0
   559   000501                     i2I2C1_CounterSet@counter:
   560                           	callstack 0
   561                           
   562                           ; 1 bytes @ 0x0
   563   000501                     	ds	1
   564   000502                     ??_INTERRUPT_InterruptManager:
   565                           
   566                           ; 1 bytes @ 0x1
   567   000502                     	ds	2
   568   000504                     _I2C1_IsBusy$603:
   569                           	callstack 0
   570   000504                     I2C1_AddrTransmit@addr:
   571                           	callstack 0
   572   000504                     I2C1_CounterSet@counter:
   573                           	callstack 0
   574   000504                     _UART1_IsTxReady$1652:
   575                           	callstack 0
   576   000504                     UART1_Write@txData:
   577                           	callstack 0
   578   000504                     I2C1_CallbackRegister@callbackHandler:
   579                           	callstack 0
   580   000504                     INT0_SetInterruptHandler@InterruptHandler:
   581                           	callstack 0
   582   000504                     INT1_SetInterruptHandler@InterruptHandler:
   583                           	callstack 0
   584   000504                     INT2_SetInterruptHandler@InterruptHandler:
   585                           	callstack 0
   586   000504                     UART1_FramingErrorCallbackRegister@callbackHandler:
   587                           	callstack 0
   588   000504                     UART1_OverrunErrorCallbackRegister@callbackHandler:
   589                           	callstack 0
   590   000504                     UART1_ParityErrorCallbackRegister@callbackHandler:
   591                           	callstack 0
   592                           
   593                           ; 3 bytes @ 0x3
   594   000504                     	ds	1
   595   000505                     putch@txData:
   596                           	callstack 0
   597   000505                     I2C1_Write@address:
   598                           	callstack 0
   599                           
   600                           ; 2 bytes @ 0x4
   601   000505                     	ds	1
   602   000506                     fputc@c:
   603                           	callstack 0
   604                           
   605                           ; 2 bytes @ 0x5
   606   000506                     	ds	1
   607   000507                     I2C1_Write@data:
   608                           	callstack 0
   609                           
   610                           ; 2 bytes @ 0x6
   611   000507                     	ds	1
   612   000508                     fputc@fp:
   613                           	callstack 0
   614                           
   615                           ; 2 bytes @ 0x7
   616   000508                     	ds	1
   617   000509                     I2C1_Write@dataLength:
   618                           	callstack 0
   619                           
   620                           ; 2 bytes @ 0x8
   621   000509                     	ds	1
   622   00050A                     ??_fputc:
   623                           
   624                           ; 1 bytes @ 0x9
   625   00050A                     	ds	1
   626   00050B                     
   627                           ; 1 bytes @ 0xA
   628   00050B                     	ds	4
   629   00050F                     vfpfcnvrt@fp:
   630                           	callstack 0
   631                           
   632                           ; 2 bytes @ 0xE
   633   00050F                     	ds	2
   634   000511                     vfpfcnvrt@fmt:
   635                           	callstack 0
   636                           
   637                           ; 2 bytes @ 0x10
   638   000511                     	ds	2
   639   000513                     vfpfcnvrt@ap:
   640                           	callstack 0
   641                           
   642                           ; 2 bytes @ 0x12
   643   000513                     	ds	2
   644   000515                     ??_vfpfcnvrt:
   645                           
   646                           ; 1 bytes @ 0x14
   647   000515                     	ds	2
   648   000517                     vfpfcnvrt@convarg:
   649                           	callstack 0
   650                           
   651                           ; 4 bytes @ 0x16
   652   000517                     	ds	4
   653   00051B                     vfpfcnvrt@x:
   654                           	callstack 0
   655                           
   656                           ; 1 bytes @ 0x1A
   657   00051B                     	ds	1
   658   00051C                     vfpfcnvrt@cp:
   659                           	callstack 0
   660                           
   661                           ; 1 bytes @ 0x1B
   662   00051C                     	ds	1
   663   00051D                     vfpfcnvrt@c:
   664                           	callstack 0
   665                           
   666                           ; 1 bytes @ 0x1C
   667   00051D                     	ds	1
   668   00051E                     ?_vfprintf:
   669                           	callstack 0
   670   00051E                     vfprintf@fp:
   671                           	callstack 0
   672                           
   673                           ; 2 bytes @ 0x1D
   674   00051E                     	ds	2
   675   000520                     vfprintf@fmt:
   676                           	callstack 0
   677                           
   678                           ; 1 bytes @ 0x1F
   679   000520                     	ds	1
   680   000521                     vfprintf@ap:
   681                           	callstack 0
   682                           
   683                           ; 2 bytes @ 0x20
   684   000521                     	ds	2
   685   000523                     vfprintf@cfmt:
   686                           	callstack 0
   687                           
   688                           ; 1 bytes @ 0x22
   689   000523                     	ds	1
   690   000524                     ?_printf:
   691                           	callstack 0
   692   000524                     printf@fmt:
   693                           	callstack 0
   694                           
   695                           ; 1 bytes @ 0x23
   696   000524                     	ds	3
   697   000527                     printf@ap:
   698                           	callstack 0
   699                           
   700                           ; 2 bytes @ 0x26
   701   000527                     	ds	2
   702   000529                     ??_main:
   703                           
   704                           ; 1 bytes @ 0x28
   705   000529                     	ds	2
   706   00052B                     main@respuesta:
   707                           	callstack 0
   708                           
   709                           ; 1 bytes @ 0x2A
   710   00052B                     	ds	1
   711   00052C                     main@var:
   712                           	callstack 0
   713                           
   714                           ; 1 bytes @ 0x2B
   715   00052C                     	ds	1
   716                           
   717 ;;
   718 ;;Main: autosize = 0, tempsize = 2, incstack = 0, save=0
   719 ;;
   720 ;; *************** function _main *****************
   721 ;; Defined at:
   722 ;;		line 41 in file "main.c"
   723 ;; Parameters:    Size  Location     Type
   724 ;;		None
   725 ;; Auto vars:     Size  Location     Type
   726 ;;  var             1   43[COMRAM] unsigned char 
   727 ;;  respuesta       1   42[COMRAM] _Bool 
   728 ;; Return value:  Size  Location     Type
   729 ;;                  2  525[None  ] int 
   730 ;; Registers used:
   731 ;;		wreg, fsr1l, fsr1h, fsr2l, fsr2h, status,2, status,0, pcl, pclath, pclatu, tosl, tblptrl, tblptrh, tblptru, cstack
   732 ;; Tracked objects:
   733 ;;		On entry : 0/0
   734 ;;		On exit  : 0/0
   735 ;;		Unchanged: 0/0
   736 ;; Data sizes:     COMRAM   BANK5   BANK6   BANK7   BANK8   BANK9  BANK10  BANK11  BANK12  BANK13  BANK14  BANK15  BANK1
      +6  BANK17  BANK18  BANK19  BANK20  BANK21  BANK22  BANK23  BANK24  BANK25  BANK26  BANK27  BANK28  BANK29  BANK30  BANK3
      +1  BANK32  BANK33  BANK34  BANK35  BANK36
   737 ;;      Params:         0       0       0       0       0       0       0       0       0       0       0       0       
      +0       0       0       0       0       0       0       0       0       0       0       0       0       0       0       
      +0       0       0       0       0       0
   738 ;;      Locals:         2       0       0       0       0       0       0       0       0       0       0       0       
      +0       0       0       0       0       0       0       0       0       0       0       0       0       0       0       
      +0       0       0       0       0       0
   739 ;;      Temps:          2       0       0       0       0       0       0       0       0       0       0       0       
      +0       0       0       0       0       0       0       0       0       0       0       0       0       0       0       
      +0       0       0       0       0       0
   740 ;;      Totals:         4       0       0       0       0       0       0       0       0       0       0       0       
      +0       0       0       0       0       0       0       0       0       0       0       0       0       0       0       
      +0       0       0       0       0       0
   741 ;;Total ram usage:        4 bytes
   742 ;; Hardware stack levels required when called: 10
   743 ;; This function calls:
   744 ;;		_I2C1_Write
   745 ;;		_SYSTEM_Initialize
   746 ;;		_printf
   747 ;; This function is called by:
   748 ;;		Startup code after reset
   749 ;; This function uses a non-reentrant model
   750 ;;
   751                           
   752                           	psect	text0
   753   002904                     __ptext0:
   754                           	callstack 0
   755   002904                     _main:
   756                           	callstack 117
   757   002904                     
   758                           ;main.c: 43:     SYSTEM_Initialize();
   759   002904  EC03  F018         	call	_SYSTEM_Initialize	;wreg free
   760   002908                     
   761                           ;main.c: 54: _delay((unsigned long)((3000)*(64000000/4000.0)));
   762   002908  0EF4               	movlw	244
   763   00290A  6E2A               	movwf	(??_main+1)^(0+1280),c
   764   00290C  0E82               	movlw	130
   765   00290E  6E29               	movwf	??_main^(0+1280),c
   766   002910  0E05               	movlw	5
   767   002912                     u1297:
   768   002912  2EE8               	decfsz	wreg,f,c
   769   002914  D7FE               	bra	u1297
   770   002916  2E29               	decfsz	??_main^(0+1280),f,c
   771   002918  D7FC               	bra	u1297
   772   00291A  2E2A               	decfsz	(??_main+1)^(0+1280),f,c
   773   00291C  D7FA               	bra	u1297
   774   00291E  0000               	nop	
   775   002920                     
   776                           ;main.c: 55:     printf("Scaner I2C \n\r");
   777   002920  0E7A               	movlw	low STR_1
   778   002922  6E24               	movwf	printf@fmt^(0+1280),c
   779   002924  EC91  F017         	call	_printf	;wreg free
   780   002928                     
   781                           ;main.c: 57:   _Bool respuesta= 0;
   782   002928  0E00               	movlw	0
   783   00292A  6E2B               	movwf	main@respuesta^(0+1280),c
   784   00292C                     
   785                           ;main.c: 59:    for (var = 0; var < 128; ++var) {
   786   00292C  0E00               	movlw	0
   787   00292E  6E2C               	movwf	main@var^(0+1280),c
   788   002930                     l2523:
   789                           
   790                           ;main.c: 62:         I2C->Write(var,1,1);
   791   002930  C52C  F505         	movff	main@var,I2C1_Write@address
   792   002934  6A06               	clrf	(I2C1_Write@address+1)^(0+1280),c
   793   002936  0E01               	movlw	1
   794   002938  6E07               	movwf	I2C1_Write@data^(0+1280),c
   795   00293A  0E00               	movlw	0
   796   00293C  6E08               	movwf	(I2C1_Write@data+1)^(0+1280),c
   797   00293E  0E00               	movlw	0
   798   002940  6E0A               	movwf	(I2C1_Write@dataLength+1)^(0+1280),c
   799   002942  0E01               	movlw	1
   800   002944  6E09               	movwf	I2C1_Write@dataLength^(0+1280),c
   801   002946  0E4F               	movlw	low (_I2C1_Host+6)
   802   002948  6EF6               	movwf	tblptrl,c
   803   00294A                     	if	1	;There is more than 1 active tblptr byte
   804   00294A  0E25               	movlw	high __smallconst
   805   00294C  6EF7               	movwf	tblptrh,c
   806   00294E                     	endif
   807   00294E                     	if	0	;tblptru may be non-zero
   808   00294E                     	endif
   809   00294E                     	if	1	;Program memory is > 0xFFFF, there are 3 active tblptr bytes
   810   00294E  0E00               	movlw	low (__smallconst shr (0+16))
   811   002950  6EF8               	movwf	tblptru,c
   812   002952                     	endif
   813   002952  D802               	call	u1258
   814   002954  EFB9  F014         	goto	u1259
   815   002958                     u1258:
   816   002958  0005               	push	
   817   00295A  6EFA               	movwf	pclath,c
   818   00295C  0009               	tblrd		*+
   819   00295E  50F5               	movf	tablat,w,c
   820   002960  6EFD               	movwf	tosl,c
   821   002962  0009               	tblrd		*+
   822   002964  50F5               	movf	tablat,w,c
   823   002966  6EFE               	movwf	tosh,c
   824   002968  0009               	tblrd		*+
   825   00296A  50F5               	movf	tablat,w,c
   826   00296C  6EFF               	movwf	tosu,c
   827   00296E  50FA               	movf	pclath,w,c
   828   002970  0012               	return		;indir
   829   002972                     u1259:
   830   002972                     
   831                           ;main.c: 64:    if (respuesta == 0) {printf("-\n\r");}
   832   002972  502B               	movf	main@respuesta^(0+1280),w,c
   833   002974  A4D8               	btfss	status,2,c
   834   002976  EFBF  F014         	goto	u1261
   835   00297A  EFC1  F014         	goto	u1260
   836   00297E                     u1261:
   837   00297E  EFC7  F014         	goto	l2529
   838   002982                     u1260:
   839   002982  0E8F               	movlw	low STR_2
   840   002984  6E24               	movwf	printf@fmt^(0+1280),c
   841   002986  EC91  F017         	call	_printf	;wreg free
   842   00298A  EFD6  F014         	goto	l2533
   843   00298E                     l2529:
   844   00298E  042B               	decf	main@respuesta^(0+1280),w,c
   845   002990  A4D8               	btfss	status,2,c
   846   002992  EFCD  F014         	goto	u1271
   847   002996  EFCF  F014         	goto	u1270
   848   00299A                     u1271:
   849   00299A  EFD6  F014         	goto	l2533
   850   00299E                     u1270:
   851   00299E  0E88               	movlw	low STR_3
   852   0029A0  6E24               	movwf	printf@fmt^(0+1280),c
   853   0029A2  C52C  F525         	movff	main@var,?_printf+1
   854   0029A6  6A26               	clrf	(?_printf+2)^(0+1280),c
   855   0029A8  EC91  F017         	call	_printf	;wreg free
   856   0029AC                     l2533:
   857                           
   858                           ;main.c: 66: _delay((unsigned long)((1)*(64000000/4000.0)));
   859   0029AC  0E15               	movlw	21
   860   0029AE  6E29               	movwf	??_main^(0+1280),c
   861   0029B0  0EC6               	movlw	198
   862   0029B2                     u1307:
   863   0029B2  2EE8               	decfsz	wreg,f,c
   864   0029B4  D7FE               	bra	u1307
   865   0029B6  2E29               	decfsz	??_main^(0+1280),f,c
   866   0029B8  D7FC               	bra	u1307
   867   0029BA  D000               	nop2	
   868   0029BC                     
   869                           ;main.c: 67:       }
   870   0029BC  2A2C               	incf	main@var^(0+1280),f,c
   871   0029BE  0E7F               	movlw	127
   872   0029C0  642C               	cpfsgt	main@var^(0+1280),c
   873   0029C2  EFE5  F014         	goto	u1281
   874   0029C6  EFE7  F014         	goto	u1280
   875   0029CA                     u1281:
   876   0029CA  EF98  F014         	goto	l2523
   877   0029CE                     u1280:
   878   0029CE                     
   879                           ;main.c: 68: printf("Scanner finalizado");
   880   0029CE  0E67               	movlw	low STR_4
   881   0029D0  6E24               	movwf	printf@fmt^(0+1280),c
   882   0029D2  EC91  F017         	call	_printf	;wreg free
   883   0029D6                     l531:
   884   0029D6  EFEB  F014         	goto	l531
   885   0029DA  EF0D  F000         	goto	start
   886   0029DE                     __end_of_main:
   887                           	callstack 0
   888                           
   889 ;; *************** function _printf *****************
   890 ;; Defined at:
   891 ;;		line 5 in file "C:\Program Files\Microchip\xc8\v2.46\pic\sources\c99\common\printf.c"
   892 ;; Parameters:    Size  Location     Type
   893 ;;  fmt             1   35[COMRAM] PTR const unsigned char 
   894 ;;		 -> STR_4(19), STR_3(7), STR_2(4), STR_1(14), 
   895 ;; Auto vars:     Size  Location     Type
   896 ;;  ap              2   38[COMRAM] PTR void [1]
   897 ;;		 -> ?_printf(2), 
   898 ;;  ret             2    0        int 
   899 ;; Return value:  Size  Location     Type
   900 ;;                  2   35[COMRAM] int 
   901 ;; Registers used:
   902 ;;		wreg, fsr1l, fsr1h, fsr2l, fsr2h, status,2, status,0, tblptrl, tblptrh, tblptru, cstack
   903 ;; Tracked objects:
   904 ;;		On entry : 0/0
   905 ;;		On exit  : 0/0
   906 ;;		Unchanged: 0/0
   907 ;; Data sizes:     COMRAM   BANK5   BANK6   BANK7   BANK8   BANK9  BANK10  BANK11  BANK12  BANK13  BANK14  BANK15  BANK1
      +6  BANK17  BANK18  BANK19  BANK20  BANK21  BANK22  BANK23  BANK24  BANK25  BANK26  BANK27  BANK28  BANK29  BANK30  BANK3
      +1  BANK32  BANK33  BANK34  BANK35  BANK36
   908 ;;      Params:         3       0       0       0       0       0       0       0       0       0       0       0       
      +0       0       0       0       0       0       0       0       0       0       0       0       0       0       0       
      +0       0       0       0       0       0
   909 ;;      Locals:         2       0       0       0       0       0       0       0       0       0       0       0       
      +0       0       0       0       0       0       0       0       0       0       0       0       0       0       0       
      +0       0       0       0       0       0
   910 ;;      Temps:          0       0       0       0       0       0       0       0       0       0       0       0       
      +0       0       0       0       0       0       0       0       0       0       0       0       0       0       0       
      +0       0       0       0       0       0
   911 ;;      Totals:         5       0       0       0       0       0       0       0       0       0       0       0       
      +0       0       0       0       0       0       0       0       0       0       0       0       0       0       0       
      +0       0       0       0       0       0
   912 ;;Total ram usage:        5 bytes
   913 ;; Hardware stack levels used: 1
   914 ;; Hardware stack levels required when called: 9
   915 ;; This function calls:
   916 ;;		_vfprintf
   917 ;; This function is called by:
   918 ;;		_main
   919 ;; This function uses a non-reentrant model
   920 ;;
   921                           
   922                           	psect	text1
   923   002F22                     __ptext1:
   924                           	callstack 0
   925   002F22                     _printf:
   926                           	callstack 117
   927   002F22  0E25               	movlw	low (?_printf+1)
   928   002F24  6E27               	movwf	printf@ap^(0+1280),c
   929   002F26  0E05               	movlw	high (?_printf+1)
   930   002F28  6E28               	movwf	(printf@ap+1)^(0+1280),c
   931   002F2A  0E00               	movlw	0
   932   002F2C  6E1E               	movwf	vfprintf@fp^(0+1280),c
   933   002F2E  0E00               	movlw	0
   934   002F30  6E1F               	movwf	(vfprintf@fp+1)^(0+1280),c
   935   002F32  C524  F520         	movff	printf@fmt,vfprintf@fmt
   936   002F36  0E27               	movlw	low printf@ap
   937   002F38  6E21               	movwf	vfprintf@ap^(0+1280),c
   938   002F3A  0E05               	movlw	high printf@ap
   939   002F3C  6E22               	movwf	(vfprintf@ap+1)^(0+1280),c
   940   002F3E  EC63  F016         	call	_vfprintf	;wreg free
   941   002F42  0012               	return		;funcret
   942   002F44                     __end_of_printf:
   943                           	callstack 0
   944                           
   945 ;; *************** function _vfprintf *****************
   946 ;; Defined at:
   947 ;;		line 1817 in file "C:\Program Files\Microchip\xc8\v2.46\pic\sources\c99\common\doprnt.c"
   948 ;; Parameters:    Size  Location     Type
   949 ;;  fp              2   29[COMRAM] PTR struct _IO_FILE
   950 ;;		 -> NULL(0), 
   951 ;;  fmt             1   31[COMRAM] PTR const unsigned char 
   952 ;;		 -> STR_4(19), STR_3(7), STR_2(4), STR_1(14), 
   953 ;;  ap              2   32[COMRAM] PTR PTR void 
   954 ;;		 -> printf@ap(2), 
   955 ;; Auto vars:     Size  Location     Type
   956 ;;  cfmt            1   34[COMRAM] PTR unsigned char 
   957 ;;		 -> STR_4(19), STR_3(7), STR_2(4), STR_1(14), 
   958 ;; Return value:  Size  Location     Type
   959 ;;                  2   29[COMRAM] int 
   960 ;; Registers used:
   961 ;;		wreg, fsr1l, fsr1h, fsr2l, fsr2h, status,2, status,0, tblptrl, tblptrh, tblptru, cstack
   962 ;; Tracked objects:
   963 ;;		On entry : 0/0
   964 ;;		On exit  : 0/0
   965 ;;		Unchanged: 0/0
   966 ;; Data sizes:     COMRAM   BANK5   BANK6   BANK7   BANK8   BANK9  BANK10  BANK11  BANK12  BANK13  BANK14  BANK15  BANK1
      +6  BANK17  BANK18  BANK19  BANK20  BANK21  BANK22  BANK23  BANK24  BANK25  BANK26  BANK27  BANK28  BANK29  BANK30  BANK3
      +1  BANK32  BANK33  BANK34  BANK35  BANK36
   967 ;;      Params:         5       0       0       0       0       0       0       0       0       0       0       0       
      +0       0       0       0       0       0       0       0       0       0       0       0       0       0       0       
      +0       0       0       0       0       0
   968 ;;      Locals:         1       0       0       0       0       0       0       0       0       0       0       0       
      +0       0       0       0       0       0       0       0       0       0       0       0       0       0       0       
      +0       0       0       0       0       0
   969 ;;      Temps:          0       0       0       0       0       0       0       0       0       0       0       0       
      +0       0       0       0       0       0       0       0       0       0       0       0       0       0       0       
      +0       0       0       0       0       0
   970 ;;      Totals:         6       0       0       0       0       0       0       0       0       0       0       0       
      +0       0       0       0       0       0       0       0       0       0       0       0       0       0       0       
      +0       0       0       0       0       0
   971 ;;Total ram usage:        6 bytes
   972 ;; Hardware stack levels used: 1
   973 ;; Hardware stack levels required when called: 8
   974 ;; This function calls:
   975 ;;		_vfpfcnvrt
   976 ;; This function is called by:
   977 ;;		_printf
   978 ;; This function uses a non-reentrant model
   979 ;;
   980                           
   981                           	psect	text2
   982   002CC6                     __ptext2:
   983                           	callstack 0
   984   002CC6                     _vfprintf:
   985                           	callstack 117
   986   002CC6                     
   987                           ;C:\Program Files\Microchip\xc8\v2.46\pic\sources\c99\common\doprnt.c: 1817: int vfprint
      +                          f(FILE *fp, const char *fmt, va_list ap);C:\Program Files\Microchip\xc8\v2.46\pic\source
      +                          s\c99\common\doprnt.c: 1818: {;C:\Program Files\Microchip\xc8\v2.46\pic\sources\c99\comm
      +                          on\doprnt.c: 1820:     char *cfmt;;C:\Program Files\Microchip\xc8\v2.46\pic\sources\c99\
      +                          common\doprnt.c: 1822:     cfmt = (char *)fmt;
   988   002CC6  C520  F523         	movff	vfprintf@fmt,vfprintf@cfmt
   989                           
   990                           ;C:\Program Files\Microchip\xc8\v2.46\pic\sources\c99\common\doprnt.c: 1826:     while (
      +                          *cfmt) {
   991   002CCA  EF75  F016         	goto	l2335
   992   002CCE                     l2333:
   993                           
   994                           ;C:\Program Files\Microchip\xc8\v2.46\pic\sources\c99\common\doprnt.c: 1830:    vfpfcnvr
      +                          t(fp, &cfmt, ap);
   995   002CCE  C51E  F50F         	movff	vfprintf@fp,vfpfcnvrt@fp
   996   002CD2  C51F  F510         	movff	vfprintf@fp+1,vfpfcnvrt@fp+1
   997   002CD6  0E23               	movlw	low vfprintf@cfmt
   998   002CD8  6E11               	movwf	vfpfcnvrt@fmt^(0+1280),c
   999   002CDA  0E05               	movlw	high vfprintf@cfmt
  1000   002CDC  6E12               	movwf	(vfpfcnvrt@fmt+1)^(0+1280),c
  1001   002CDE  C521  F513         	movff	vfprintf@ap,vfpfcnvrt@ap
  1002   002CE2  C522  F514         	movff	vfprintf@ap+1,vfpfcnvrt@ap+1
  1003   002CE6  ECCA  F012         	call	_vfpfcnvrt	;wreg free
  1004   002CEA                     l2335:
  1005                           
  1006                           ;C:\Program Files\Microchip\xc8\v2.46\pic\sources\c99\common\doprnt.c: 1826:     while (
      +                          *cfmt) {
  1007   002CEA  C523  F4F6         	movff	vfprintf@cfmt,tblptrl
  1008   002CEE                     	if	1	;There is more than 1 active tblptr byte
  1009   002CEE  0E25               	movlw	high __smallconst
  1010   002CF0  6EF7               	movwf	tblptrh,c
  1011   002CF2                     	endif
  1012   002CF2                     	if	0	;tblptru may be non-zero
  1013   002CF2                     	endif
  1014   002CF2                     	if	1	;Program memory is > 0xFFFF, there are 3 active tblptr bytes
  1015   002CF2  0E00               	movlw	low (__smallconst shr (0+16))
  1016   002CF4  6EF8               	movwf	tblptru,c
  1017   002CF6                     	endif
  1018   002CF6  0008               	tblrd		*
  1019   002CF8  50F5               	movf	tablat,w,c
  1020   002CFA  0900               	iorlw	0
  1021   002CFC  A4D8               	btfss	status,2,c
  1022   002CFE  EF83  F016         	goto	u981
  1023   002D02  EF85  F016         	goto	u980
  1024   002D06                     u981:
  1025   002D06  EF67  F016         	goto	l2333
  1026   002D0A                     u980:
  1027   002D0A                     
  1028                           ;C:\Program Files\Microchip\xc8\v2.46\pic\sources\c99\common\doprnt.c: 1835:  return 0;
  1029   002D0A  0E00               	movlw	0
  1030   002D0C  6E1F               	movwf	(?_vfprintf+1)^(0+1280),c
  1031   002D0E  0E00               	movlw	0
  1032   002D10  6E1E               	movwf	?_vfprintf^(0+1280),c
  1033   002D12  0012               	return		;funcret
  1034   002D14                     __end_of_vfprintf:
  1035                           	callstack 0
  1036                           
  1037 ;; *************** function _vfpfcnvrt *****************
  1038 ;; Defined at:
  1039 ;;		line 1177 in file "C:\Program Files\Microchip\xc8\v2.46\pic\sources\c99\common\doprnt.c"
  1040 ;; Parameters:    Size  Location     Type
  1041 ;;  fp              2   14[COMRAM] PTR struct _IO_FILE
  1042 ;;		 -> NULL(0), 
  1043 ;;  fmt             2   16[COMRAM] PTR PTR unsigned char 
  1044 ;;		 -> vfprintf@cfmt(1), 
  1045 ;;  ap              2   18[COMRAM] PTR PTR void 
  1046 ;;		 -> printf@ap(2), 
  1047 ;; Auto vars:     Size  Location     Type
  1048 ;;  convarg         4   22[COMRAM] struct .
  1049 ;;  c               1   28[COMRAM] unsigned char 
  1050 ;;  cp              1   27[COMRAM] PTR unsigned char 
  1051 ;;		 -> STR_4(19), STR_3(7), STR_2(4), STR_1(14), 
  1052 ;;  x               1   26[COMRAM] unsigned char 
  1053 ;;  done            1    0        _Bool 
  1054 ;; Return value:  Size  Location     Type
  1055 ;;                  1    wreg      void 
  1056 ;; Registers used:
  1057 ;;		wreg, fsr1l, fsr1h, fsr2l, fsr2h, status,2, status,0, tblptrl, tblptrh, tblptru, cstack
  1058 ;; Tracked objects:
  1059 ;;		On entry : 0/0
  1060 ;;		On exit  : 0/0
  1061 ;;		Unchanged: 0/0
  1062 ;; Data sizes:     COMRAM   BANK5   BANK6   BANK7   BANK8   BANK9  BANK10  BANK11  BANK12  BANK13  BANK14  BANK15  BANK1
      +6  BANK17  BANK18  BANK19  BANK20  BANK21  BANK22  BANK23  BANK24  BANK25  BANK26  BANK27  BANK28  BANK29  BANK30  BANK3
      +1  BANK32  BANK33  BANK34  BANK35  BANK36
  1063 ;;      Params:         6       0       0       0       0       0       0       0       0       0       0       0       
      +0       0       0       0       0       0       0       0       0       0       0       0       0       0       0       
      +0       0       0       0       0       0
  1064 ;;      Locals:         7       0       0       0       0       0       0       0       0       0       0       0       
      +0       0       0       0       0       0       0       0       0       0       0       0       0       0       0       
      +0       0       0       0       0       0
  1065 ;;      Temps:          2       0       0       0       0       0       0       0       0       0       0       0       
      +0       0       0       0       0       0       0       0       0       0       0       0       0       0       0       
      +0       0       0       0       0       0
  1066 ;;      Totals:        15       0       0       0       0       0       0       0       0       0       0       0       
      +0       0       0       0       0       0       0       0       0       0       0       0       0       0       0       
      +0       0       0       0       0       0
  1067 ;;Total ram usage:       15 bytes
  1068 ;; Hardware stack levels used: 1
  1069 ;; Hardware stack levels required when called: 7
  1070 ;; This function calls:
  1071 ;;		_fputc
  1072 ;; This function is called by:
  1073 ;;		_vfprintf
  1074 ;; This function uses a non-reentrant model
  1075 ;;
  1076                           
  1077                           	psect	text3
  1078   002594                     __ptext3:
  1079                           	callstack 0
  1080   002594                     _vfpfcnvrt:
  1081                           	callstack 117
  1082   002594                     
  1083                           ;C:\Program Files\Microchip\xc8\v2.46\pic\sources\c99\common\doprnt.c: 1177: vfpfcnvrt(F
      +                          ILE *fp, char *fmt[], va_list ap);C:\Program Files\Microchip\xc8\v2.46\pic\sources\c99\c
      +                          ommon\doprnt.c: 1178: {;C:\Program Files\Microchip\xc8\v2.46\pic\sources\c99\common\dopr
      +                          nt.c: 1179:     char c, *cp;;C:\Program Files\Microchip\xc8\v2.46\pic\sources\c99\common
      +                          \doprnt.c: 1180:     _Bool done;;C:\Program Files\Microchip\xc8\v2.46\pic\sources\c99\co
      +                          mmon\doprnt.c: 1188:  } convarg;;C:\Program Files\Microchip\xc8\v2.46\pic\sources\c99\co
      +                          mmon\doprnt.c: 1194:  char x;
  1084   002594  C511  F4D9         	movff	vfpfcnvrt@fmt,fsr2l
  1085   002598  C512  F4DA         	movff	vfpfcnvrt@fmt+1,fsr2h
  1086   00259C  C4DF F4F6          	movff	indf2,tblptrl
  1087   0025A0                     	if	1	;There is more than 1 active tblptr byte
  1088   0025A0  0E25               	movlw	high __smallconst
  1089   0025A2  6EF7               	movwf	tblptrh,c
  1090   0025A4                     	endif
  1091   0025A4                     	if	0	;tblptru may be non-zero
  1092   0025A4                     	endif
  1093   0025A4                     	if	1	;Program memory is > 0xFFFF, there are 3 active tblptr bytes
  1094   0025A4  0E00               	movlw	low (__smallconst shr (0+16))
  1095   0025A6  6EF8               	movwf	tblptru,c
  1096   0025A8                     	endif
  1097   0025A8  0008               	tblrd		*
  1098   0025AA  50F5               	movf	tablat,w,c
  1099   0025AC  0A25               	xorlw	37
  1100   0025AE  A4D8               	btfss	status,2,c
  1101   0025B0  EFDC  F012         	goto	u881
  1102   0025B4  EFDE  F012         	goto	u880
  1103   0025B8                     u881:
  1104   0025B8  EF87  F013         	goto	l2245
  1105   0025BC                     u880:
  1106   0025BC                     
  1107                           ;C:\Program Files\Microchip\xc8\v2.46\pic\sources\c99\common\doprnt.c: 1202:         ++*
      +                          fmt;
  1108   0025BC  C511  F4D9         	movff	vfpfcnvrt@fmt,fsr2l
  1109   0025C0  C512  F4DA         	movff	vfpfcnvrt@fmt+1,fsr2h
  1110   0025C4  2ADF               	incf	indf2,f,c
  1111   0025C6                     
  1112                           ;C:\Program Files\Microchip\xc8\v2.46\pic\sources\c99\common\doprnt.c: 1204:         fla
      +                          gs = width = 0;
  1113   0025C6  0E00               	movlw	0
  1114   0025C8  6E50               	movwf	(_width+1)^(0+1280),c
  1115   0025CA  0E00               	movlw	0
  1116   0025CC  6E4F               	movwf	_width^(0+1280),c
  1117   0025CE  C54F  F555         	movff	_width,_flags
  1118   0025D2                     
  1119                           ;C:\Program Files\Microchip\xc8\v2.46\pic\sources\c99\common\doprnt.c: 1205:         pre
      +                          c = -1;
  1120   0025D2  6851               	setf	_prec^(0+1280),c
  1121   0025D4  6852               	setf	(_prec+1)^(0+1280),c
  1122   0025D6                     
  1123                           ;C:\Program Files\Microchip\xc8\v2.46\pic\sources\c99\common\doprnt.c: 1439:   if (0
  1124   0025D6  C511  F4D9         	movff	vfpfcnvrt@fmt,fsr2l
  1125   0025DA  C512  F4DA         	movff	vfpfcnvrt@fmt+1,fsr2h
  1126   0025DE  50DF               	movf	indf2,w,c
  1127   0025E0  6E1C               	movwf	vfpfcnvrt@cp^(0+1280),c
  1128   0025E2  C51C  F4F6         	movff	vfpfcnvrt@cp,tblptrl
  1129   0025E6                     	if	1	;There is more than 1 active tblptr byte
  1130   0025E6  0E25               	movlw	high __smallconst
  1131   0025E8  6EF7               	movwf	tblptrh,c
  1132   0025EA                     	endif
  1133   0025EA                     	if	0	;tblptru may be non-zero
  1134   0025EA                     	endif
  1135   0025EA                     	if	1	;Program memory is > 0xFFFF, there are 3 active tblptr bytes
  1136   0025EA  0E00               	movlw	low (__smallconst shr (0+16))
  1137   0025EC  6EF8               	movwf	tblptru,c
  1138   0025EE                     	endif
  1139   0025EE  0008               	tblrd		*
  1140   0025F0  50F5               	movf	tablat,w,c
  1141   0025F2  0A58               	xorlw	88
  1142   0025F4  A4D8               	btfss	status,2,c
  1143   0025F6  EFFF  F012         	goto	u891
  1144   0025FA  EF01  F013         	goto	u890
  1145   0025FE                     u891:
  1146   0025FE  EF80  F013         	goto	l2241
  1147   002602                     u890:
  1148   002602                     
  1149                           ;C:\Program Files\Microchip\xc8\v2.46\pic\sources\c99\common\doprnt.c: 1452:     ) {;C:\
      +                          Program Files\Microchip\xc8\v2.46\pic\sources\c99\common\doprnt.c: 1495:    convarg.uint
      +                           = (vfpf_uint_t)(unsigned int)(*(unsigned int *)__va_arg(*(unsigned int **)ap, (unsigned
      +                           int)0));
  1150   002602  C513  F4D9         	movff	vfpfcnvrt@ap,fsr2l
  1151   002606  C514  F4DA         	movff	vfpfcnvrt@ap+1,fsr2h
  1152   00260A  C4DF F515          	movff	indf2,??_vfpfcnvrt
  1153   00260E  0E02               	movlw	2
  1154   002610  26DE               	addwf	postinc2,f,c
  1155   002612  C4DF F516          	movff	indf2,??_vfpfcnvrt+1
  1156   002616  0E00               	movlw	0
  1157   002618  22DD               	addwfc	postdec2,f,c
  1158   00261A  C515  F4D9         	movff	??_vfpfcnvrt,fsr2l
  1159   00261E  C516  F4DA         	movff	??_vfpfcnvrt+1,fsr2h
  1160   002622  C4DE F517          	movff	postinc2,vfpfcnvrt@convarg
  1161   002626  C4DD F518          	movff	postdec2,vfpfcnvrt@convarg+1
  1162                           
  1163                           ;C:\Program Files\Microchip\xc8\v2.46\pic\sources\c99\common\doprnt.c: 1497:    *fmt = c
      +                          p+1;
  1164   00262A  281C               	incf	vfpfcnvrt@cp^(0+1280),w,c
  1165   00262C  C511  F4D9         	movff	vfpfcnvrt@fmt,fsr2l
  1166   002630  C512  F4DA         	movff	vfpfcnvrt@fmt+1,fsr2h
  1167   002634  6EDF               	movwf	indf2,c
  1168                           
  1169                           ;C:\Program Files\Microchip\xc8\v2.46\pic\sources\c99\common\doprnt.c: 1498:    switch (
      +                          *cp) {
  1170   002636  EF72  F013         	goto	l2239
  1171   00263A                     l2213:
  1172                           
  1173                           ;C:\Program Files\Microchip\xc8\v2.46\pic\sources\c99\common\doprnt.c: 1553:      c = si
      +                          zeof(dbuf);
  1174   00263A  0E20               	movlw	32
  1175   00263C  6E1D               	movwf	vfpfcnvrt@c^(0+1280),c
  1176   00263E                     l2215:
  1177                           
  1178                           ;C:\Program Files\Microchip\xc8\v2.46\pic\sources\c99\common\doprnt.c: 1558:       x = (
      +                          convarg.uint & 0xf);
  1179   00263E  5017               	movf	vfpfcnvrt@convarg^(0+1280),w,c
  1180   002640  0B0F               	andlw	15
  1181   002642  6E1B               	movwf	vfpfcnvrt@x^(0+1280),c
  1182   002644                     
  1183                           ;C:\Program Files\Microchip\xc8\v2.46\pic\sources\c99\common\doprnt.c: 1559:       if (x
      +                           < 10) {
  1184   002644  0E0A               	movlw	10
  1185   002646  601B               	cpfslt	vfpfcnvrt@x^(0+1280),c
  1186   002648  EF28  F013         	goto	u901
  1187   00264C  EF2A  F013         	goto	u900
  1188   002650                     u901:
  1189   002650  EF2E  F013         	goto	l2221
  1190   002654                     u900:
  1191   002654                     
  1192                           ;C:\Program Files\Microchip\xc8\v2.46\pic\sources\c99\common\doprnt.c: 1560:        x +=
      +                           '0';
  1193   002654  0E30               	movlw	48
  1194   002656  261B               	addwf	vfpfcnvrt@x^(0+1280),f,c
  1195                           
  1196                           ;C:\Program Files\Microchip\xc8\v2.46\pic\sources\c99\common\doprnt.c: 1561:       }
  1197   002658  EF30  F013         	goto	l2223
  1198   00265C                     l2221:
  1199                           
  1200                           ;C:\Program Files\Microchip\xc8\v2.46\pic\sources\c99\common\doprnt.c: 1568:        x +=
      +                           'A' - 10;
  1201   00265C  0E37               	movlw	55
  1202   00265E  261B               	addwf	vfpfcnvrt@x^(0+1280),f,c
  1203   002660                     l2223:
  1204                           
  1205                           ;C:\Program Files\Microchip\xc8\v2.46\pic\sources\c99\common\doprnt.c: 1571:       dbuf[
      +                          --c] = x;
  1206   002660  061D               	decf	vfpfcnvrt@c^(0+1280),f,c
  1207   002662  0E60               	movlw	low _dbuf
  1208   002664  241D               	addwf	vfpfcnvrt@c^(0+1280),w,c
  1209   002666  6ED9               	movwf	fsr2l,c
  1210   002668  6ADA               	clrf	fsr2h,c
  1211   00266A  0E05               	movlw	high _dbuf
  1212   00266C  22DA               	addwfc	fsr2h,f,c
  1213   00266E  C51B  F4DF         	movff	vfpfcnvrt@x,indf2
  1214   002672                     
  1215                           ;C:\Program Files\Microchip\xc8\v2.46\pic\sources\c99\common\doprnt.c: 1572:       conva
      +                          rg.uint >>= 4;
  1216   002672  3A17               	swapf	vfpfcnvrt@convarg^(0+1280),f,c
  1217   002674  3A18               	swapf	(vfpfcnvrt@convarg+1)^(0+1280),f,c
  1218   002676  0E0F               	movlw	15
  1219   002678  1617               	andwf	vfpfcnvrt@convarg^(0+1280),f,c
  1220   00267A  5018               	movf	(vfpfcnvrt@convarg+1)^(0+1280),w,c
  1221   00267C  0BF0               	andlw	240
  1222   00267E  1217               	iorwf	vfpfcnvrt@convarg^(0+1280),f,c
  1223   002680  0E0F               	movlw	15
  1224   002682  1618               	andwf	(vfpfcnvrt@convarg+1)^(0+1280),f,c
  1225   002684                     
  1226                           ;C:\Program Files\Microchip\xc8\v2.46\pic\sources\c99\common\doprnt.c: 1576:      } whil
      +                          e (convarg.uint != 0 && c != 0);
  1227   002684  5017               	movf	vfpfcnvrt@convarg^(0+1280),w,c
  1228   002686  1018               	iorwf	(vfpfcnvrt@convarg+1)^(0+1280),w,c
  1229   002688  B4D8               	btfsc	status,2,c
  1230   00268A  EF49  F013         	goto	u911
  1231   00268E  EF4B  F013         	goto	u910
  1232   002692                     u911:
  1233   002692  EF67  F013         	goto	l2235
  1234   002696                     u910:
  1235   002696  501D               	movf	vfpfcnvrt@c^(0+1280),w,c
  1236   002698  A4D8               	btfss	status,2,c
  1237   00269A  EF51  F013         	goto	u921
  1238   00269E  EF53  F013         	goto	u920
  1239   0026A2                     u921:
  1240   0026A2  EF1F  F013         	goto	l2215
  1241   0026A6                     u920:
  1242   0026A6  EF67  F013         	goto	l2235
  1243   0026AA                     l2231:
  1244                           
  1245                           ;C:\Program Files\Microchip\xc8\v2.46\pic\sources\c99\common\doprnt.c: 1578:       fputc
      +                          (dbuf[c++], fp);
  1246   0026AA  0E60               	movlw	low _dbuf
  1247   0026AC  241D               	addwf	vfpfcnvrt@c^(0+1280),w,c
  1248   0026AE  6ED9               	movwf	fsr2l,c
  1249   0026B0  6ADA               	clrf	fsr2h,c
  1250   0026B2  0E05               	movlw	high _dbuf
  1251   0026B4  22DA               	addwfc	fsr2h,f,c
  1252   0026B6  50DF               	movf	indf2,w,c
  1253   0026B8  6E15               	movwf	??_vfpfcnvrt^(0+1280),c
  1254   0026BA  5015               	movf	??_vfpfcnvrt^(0+1280),w,c
  1255   0026BC  6E06               	movwf	fputc@c^(0+1280),c
  1256   0026BE  6A07               	clrf	(fputc@c+1)^(0+1280),c
  1257   0026C0  C50F  F508         	movff	vfpfcnvrt@fp,fputc@fp
  1258   0026C4  C510  F509         	movff	vfpfcnvrt@fp+1,fputc@fp+1
  1259   0026C8  ECEF  F014         	call	_fputc	;wreg free
  1260   0026CC  2A1D               	incf	vfpfcnvrt@c^(0+1280),f,c
  1261   0026CE                     l2235:
  1262                           
  1263                           ;C:\Program Files\Microchip\xc8\v2.46\pic\sources\c99\common\doprnt.c: 1577:      while 
      +                          (c != sizeof(dbuf)) {
  1264   0026CE  0E20               	movlw	32
  1265   0026D0  181D               	xorwf	vfpfcnvrt@c^(0+1280),w,c
  1266   0026D2  A4D8               	btfss	status,2,c
  1267   0026D4  EF6E  F013         	goto	u931
  1268   0026D8  EF70  F013         	goto	u930
  1269   0026DC                     u931:
  1270   0026DC  EF55  F013         	goto	l2231
  1271   0026E0                     u930:
  1272   0026E0  EF9D  F013         	goto	l1452
  1273   0026E4                     l2239:
  1274   0026E4  C51C  F4F6         	movff	vfpfcnvrt@cp,tblptrl
  1275   0026E8                     	if	1	;There is more than 1 active tblptr byte
  1276   0026E8  0E25               	movlw	high __smallconst
  1277   0026EA  6EF7               	movwf	tblptrh,c
  1278   0026EC                     	endif
  1279   0026EC                     	if	0	;tblptru may be non-zero
  1280   0026EC                     	endif
  1281   0026EC                     	if	1	;Program memory is > 0xFFFF, there are 3 active tblptr bytes
  1282   0026EC  0E00               	movlw	low (__smallconst shr (0+16))
  1283   0026EE  6EF8               	movwf	tblptru,c
  1284   0026F0                     	endif
  1285   0026F0  0008               	tblrd		*
  1286   0026F2  50F5               	movf	tablat,w,c
  1287                           
  1288                           ; Switch size 1, requested type "simple"
  1289                           ; Number of cases is 1, Range of values is 88 to 88
  1290                           ; switch strategies available:
  1291                           ; Name         Instructions Cycles
  1292                           ; simple_byte            4     3 (average)
  1293                           ;	Chosen strategy is simple_byte
  1294   0026F4  0A58               	xorlw	88	; case 88
  1295   0026F6  B4D8               	btfsc	status,2,c
  1296   0026F8  EF1D  F013         	goto	l2213
  1297   0026FC  EF80  F013         	goto	l2241
  1298   002700                     l2241:
  1299                           
  1300                           ;C:\Program Files\Microchip\xc8\v2.46\pic\sources\c99\common\doprnt.c: 1806:         ++*
      +                          fmt;
  1301   002700  C511  F4D9         	movff	vfpfcnvrt@fmt,fsr2l
  1302   002704  C512  F4DA         	movff	vfpfcnvrt@fmt+1,fsr2h
  1303   002708  2ADF               	incf	indf2,f,c
  1304   00270A  EF9D  F013         	goto	l1452
  1305   00270E                     l2245:
  1306                           
  1307                           ;C:\Program Files\Microchip\xc8\v2.46\pic\sources\c99\common\doprnt.c: 1811:     fputc((
      +                          int)(*fmt)[0], fp);
  1308   00270E  C511  F4D9         	movff	vfpfcnvrt@fmt,fsr2l
  1309   002712  C512  F4DA         	movff	vfpfcnvrt@fmt+1,fsr2h
  1310   002716  C4DF F4F6          	movff	indf2,tblptrl
  1311   00271A                     	if	1	;There is more than 1 active tblptr byte
  1312   00271A  0E25               	movlw	high __smallconst
  1313   00271C  6EF7               	movwf	tblptrh,c
  1314   00271E                     	endif
  1315   00271E                     	if	0	;tblptru may be non-zero
  1316   00271E                     	endif
  1317   00271E                     	if	1	;Program memory is > 0xFFFF, there are 3 active tblptr bytes
  1318   00271E  0E00               	movlw	low (__smallconst shr (0+16))
  1319   002720  6EF8               	movwf	tblptru,c
  1320   002722                     	endif
  1321   002722  0008               	tblrd		*
  1322   002724  50F5               	movf	tablat,w,c
  1323   002726  6E06               	movwf	fputc@c^(0+1280),c
  1324   002728  6A07               	clrf	(fputc@c+1)^(0+1280),c
  1325   00272A  C50F  F508         	movff	vfpfcnvrt@fp,fputc@fp
  1326   00272E  C510  F509         	movff	vfpfcnvrt@fp+1,fputc@fp+1
  1327   002732  ECEF  F014         	call	_fputc	;wreg free
  1328   002736  EF80  F013         	goto	l2241
  1329   00273A                     l1452:
  1330   00273A  0012               	return		;funcret
  1331   00273C                     __end_of_vfpfcnvrt:
  1332                           	callstack 0
  1333                           
  1334 ;; *************** function _fputc *****************
  1335 ;; Defined at:
  1336 ;;		line 8 in file "C:\Program Files\Microchip\xc8\v2.46\pic\sources\c99\common\nf_fputc.c"
  1337 ;; Parameters:    Size  Location     Type
  1338 ;;  c               2    5[COMRAM] int 
  1339 ;;  fp              2    7[COMRAM] PTR struct _IO_FILE
  1340 ;;		 -> NULL(0), 
  1341 ;; Auto vars:     Size  Location     Type
  1342 ;;		None
  1343 ;; Return value:  Size  Location     Type
  1344 ;;                  2    5[COMRAM] int 
  1345 ;; Registers used:
  1346 ;;		wreg, fsr1l, fsr1h, fsr2l, fsr2h, status,2, status,0, cstack
  1347 ;; Tracked objects:
  1348 ;;		On entry : 0/0
  1349 ;;		On exit  : 0/0
  1350 ;;		Unchanged: 0/0
  1351 ;; Data sizes:     COMRAM   BANK5   BANK6   BANK7   BANK8   BANK9  BANK10  BANK11  BANK12  BANK13  BANK14  BANK15  BANK1
      +6  BANK17  BANK18  BANK19  BANK20  BANK21  BANK22  BANK23  BANK24  BANK25  BANK26  BANK27  BANK28  BANK29  BANK30  BANK3
      +1  BANK32  BANK33  BANK34  BANK35  BANK36
  1352 ;;      Params:         4       0       0       0       0       0       0       0       0       0       0       0       
      +0       0       0       0       0       0       0       0       0       0       0       0       0       0       0       
      +0       0       0       0       0       0
  1353 ;;      Locals:         0       0       0       0       0       0       0       0       0       0       0       0       
      +0       0       0       0       0       0       0       0       0       0       0       0       0       0       0       
      +0       0       0       0       0       0
  1354 ;;      Temps:          5       0       0       0       0       0       0       0       0       0       0       0       
      +0       0       0       0       0       0       0       0       0       0       0       0       0       0       0       
      +0       0       0       0       0       0
  1355 ;;      Totals:         9       0       0       0       0       0       0       0       0       0       0       0       
      +0       0       0       0       0       0       0       0       0       0       0       0       0       0       0       
      +0       0       0       0       0       0
  1356 ;;Total ram usage:        9 bytes
  1357 ;; Hardware stack levels used: 1
  1358 ;; Hardware stack levels required when called: 6
  1359 ;; This function calls:
  1360 ;;		_putch
  1361 ;; This function is called by:
  1362 ;;		_vfpfcnvrt
  1363 ;; This function uses a non-reentrant model
  1364 ;;
  1365                           
  1366                           	psect	text4
  1367   0029DE                     __ptext4:
  1368                           	callstack 0
  1369   0029DE                     _fputc:
  1370                           	callstack 117
  1371   0029DE  5008               	movf	fputc@fp^(0+1280),w,c
  1372   0029E0  1009               	iorwf	(fputc@fp+1)^(0+1280),w,c
  1373   0029E2  B4D8               	btfsc	status,2,c
  1374   0029E4  EFF6  F014         	goto	u801
  1375   0029E8  EFF8  F014         	goto	u800
  1376   0029EC                     u801:
  1377   0029EC  EF01  F015         	goto	l2167
  1378   0029F0                     u800:
  1379   0029F0  5008               	movf	fputc@fp^(0+1280),w,c
  1380   0029F2  1009               	iorwf	(fputc@fp+1)^(0+1280),w,c
  1381   0029F4  A4D8               	btfss	status,2,c
  1382   0029F6  EFFF  F014         	goto	u811
  1383   0029FA  EF01  F015         	goto	u810
  1384   0029FE                     u811:
  1385   0029FE  EF06  F015         	goto	l2169
  1386   002A02                     u810:
  1387   002A02                     l2167:
  1388   002A02  5006               	movf	fputc@c^(0+1280),w,c
  1389   002A04  ECE6  F017         	call	_putch
  1390   002A08  EF53  F015         	goto	l1471
  1391   002A0C                     l2169:
  1392   002A0C  EE20 F00A          	lfsr	2,10
  1393   002A10  5008               	movf	fputc@fp^(0+1280),w,c
  1394   002A12  26D9               	addwf	fsr2l,f,c
  1395   002A14  5009               	movf	(fputc@fp+1)^(0+1280),w,c
  1396   002A16  22DA               	addwfc	fsr2h,f,c
  1397   002A18  50DE               	movf	postinc2,w,c
  1398   002A1A  10DE               	iorwf	postinc2,w,c
  1399   002A1C  B4D8               	btfsc	status,2,c
  1400   002A1E  EF13  F015         	goto	u821
  1401   002A22  EF15  F015         	goto	u820
  1402   002A26                     u821:
  1403   002A26  EF30  F015         	goto	l2173
  1404   002A2A                     u820:
  1405   002A2A  EE20 F00A          	lfsr	2,10
  1406   002A2E  5008               	movf	fputc@fp^(0+1280),w,c
  1407   002A30  26D9               	addwf	fsr2l,f,c
  1408   002A32  5009               	movf	(fputc@fp+1)^(0+1280),w,c
  1409   002A34  22DA               	addwfc	fsr2h,f,c
  1410   002A36  EE10 F003          	lfsr	1,3
  1411   002A3A  5008               	movf	fputc@fp^(0+1280),w,c
  1412   002A3C  26E1               	addwf	fsr1l,f,c
  1413   002A3E  5009               	movf	(fputc@fp+1)^(0+1280),w,c
  1414   002A40  22E2               	addwfc	fsr1h,f,c
  1415   002A42  50DE               	movf	postinc2,w,c
  1416   002A44  5CE6               	subwf	postinc1,w,c
  1417   002A46  50E6               	movf	postinc1,w,c
  1418   002A48  0A80               	xorlw	128
  1419   002A4A  6E0E               	movwf	(??_fputc+4)^(0+1280),c
  1420   002A4C  50DE               	movf	postinc2,w,c
  1421   002A4E  0A80               	xorlw	128
  1422   002A50  580E               	subwfb	(??_fputc+4)^(0+1280),w,c
  1423   002A52  B0D8               	btfsc	status,0,c
  1424   002A54  EF2E  F015         	goto	u831
  1425   002A58  EF30  F015         	goto	u830
  1426   002A5C                     u831:
  1427   002A5C  EF53  F015         	goto	l1471
  1428   002A60                     u830:
  1429   002A60                     l2173:
  1430   002A60  EE20 F003          	lfsr	2,3
  1431   002A64  5008               	movf	fputc@fp^(0+1280),w,c
  1432   002A66  26D9               	addwf	fsr2l,f,c
  1433   002A68  5009               	movf	(fputc@fp+1)^(0+1280),w,c
  1434   002A6A  22DA               	addwfc	fsr2h,f,c
  1435   002A6C  C4DE F50A          	movff	postinc2,??_fputc
  1436   002A70  C4DD F50B          	movff	postdec2,??_fputc+1
  1437   002A74  C508  F4D9         	movff	fputc@fp,fsr2l
  1438   002A78  C509  F4DA         	movff	fputc@fp+1,fsr2h
  1439   002A7C  C4DE F50C          	movff	postinc2,??_fputc+2
  1440   002A80  C4DD F50D          	movff	postdec2,??_fputc+3
  1441   002A84  500A               	movf	??_fputc^(0+1280),w,c
  1442   002A86  240C               	addwf	(??_fputc+2)^(0+1280),w,c
  1443   002A88  6ED9               	movwf	fsr2l,c
  1444   002A8A  500B               	movf	(??_fputc+1)^(0+1280),w,c
  1445   002A8C  200D               	addwfc	(??_fputc+3)^(0+1280),w,c
  1446   002A8E  6EDA               	movwf	fsr2h,c
  1447   002A90  C506  F4DF         	movff	fputc@c,indf2
  1448   002A94  EE20 F003          	lfsr	2,3
  1449   002A98  5008               	movf	fputc@fp^(0+1280),w,c
  1450   002A9A  26D9               	addwf	fsr2l,f,c
  1451   002A9C  5009               	movf	(fputc@fp+1)^(0+1280),w,c
  1452   002A9E  22DA               	addwfc	fsr2h,f,c
  1453   002AA0  2ADE               	incf	postinc2,f,c
  1454   002AA2  0E00               	movlw	0
  1455   002AA4  22DD               	addwfc	postdec2,f,c
  1456   002AA6                     l1471:
  1457   002AA6  0012               	return		;funcret
  1458   002AA8                     __end_of_fputc:
  1459                           	callstack 0
  1460                           
  1461 ;; *************** function _putch *****************
  1462 ;; Defined at:
  1463 ;;		line 299 in file "mcc_generated_files/uart/src/uart1.c"
  1464 ;; Parameters:    Size  Location     Type
  1465 ;;  txData          1    wreg     unsigned char 
  1466 ;; Auto vars:     Size  Location     Type
  1467 ;;  txData          1    4[COMRAM] unsigned char 
  1468 ;; Return value:  Size  Location     Type
  1469 ;;                  1    wreg      void 
  1470 ;; Registers used:
  1471 ;;		wreg, status,2, cstack
  1472 ;; Tracked objects:
  1473 ;;		On entry : 0/0
  1474 ;;		On exit  : 0/0
  1475 ;;		Unchanged: 0/0
  1476 ;; Data sizes:     COMRAM   BANK5   BANK6   BANK7   BANK8   BANK9  BANK10  BANK11  BANK12  BANK13  BANK14  BANK15  BANK1
      +6  BANK17  BANK18  BANK19  BANK20  BANK21  BANK22  BANK23  BANK24  BANK25  BANK26  BANK27  BANK28  BANK29  BANK30  BANK3
      +1  BANK32  BANK33  BANK34  BANK35  BANK36
  1477 ;;      Params:         0       0       0       0       0       0       0       0       0       0       0       0       
      +0       0       0       0       0       0       0       0       0       0       0       0       0       0       0       
      +0       0       0       0       0       0
  1478 ;;      Locals:         1       0       0       0       0       0       0       0       0       0       0       0       
      +0       0       0       0       0       0       0       0       0       0       0       0       0       0       0       
      +0       0       0       0       0       0
  1479 ;;      Temps:          0       0       0       0       0       0       0       0       0       0       0       0       
      +0       0       0       0       0       0       0       0       0       0       0       0       0       0       0       
      +0       0       0       0       0       0
  1480 ;;      Totals:         1       0       0       0       0       0       0       0       0       0       0       0       
      +0       0       0       0       0       0       0       0       0       0       0       0       0       0       0       
      +0       0       0       0       0       0
  1481 ;;Total ram usage:        1 bytes
  1482 ;; Hardware stack levels used: 1
  1483 ;; Hardware stack levels required when called: 5
  1484 ;; This function calls:
  1485 ;;		_UART1_IsTxReady
  1486 ;;		_UART1_Write
  1487 ;; This function is called by:
  1488 ;;		_fputc
  1489 ;; This function uses a non-reentrant model
  1490 ;;
  1491                           
  1492                           	psect	text5
  1493   002FCC                     __ptext5:
  1494                           	callstack 0
  1495   002FCC                     _putch:
  1496                           	callstack 117
  1497                           
  1498                           ;incstack = 0
  1499                           ;putch@txData stored from wreg
  1500   002FCC  6E05               	movwf	putch@txData^(0+1280),c
  1501   002FCE                     l2157:
  1502   002FCE  EC42  F017         	call	_UART1_IsTxReady	;wreg free
  1503   002FD2  0900               	iorlw	0
  1504   002FD4  B4D8               	btfsc	status,2,c
  1505   002FD6  EFEF  F017         	goto	u791
  1506   002FDA  EFF1  F017         	goto	u790
  1507   002FDE                     u791:
  1508   002FDE  EFE7  F017         	goto	l2157
  1509   002FE2                     u790:
  1510   002FE2                     
  1511                           ;mcc_generated_files/uart/src/uart1.c: 302:     return UART1_Write(txData);;	Return valu
      +                          e of _putch is never used
  1512   002FE2  5005               	movf	putch@txData^(0+1280),w,c
  1513   002FE4  EC96  F018         	call	_UART1_Write
  1514   002FE8  0012               	return		;funcret
  1515   002FEA                     __end_of_putch:
  1516                           	callstack 0
  1517                           
  1518 ;; *************** function _UART1_Write *****************
  1519 ;; Defined at:
  1520 ;;		line 287 in file "mcc_generated_files/uart/src/uart1.c"
  1521 ;; Parameters:    Size  Location     Type
  1522 ;;  txData          1    wreg     unsigned char 
  1523 ;; Auto vars:     Size  Location     Type
  1524 ;;  txData          1    3[COMRAM] unsigned char 
  1525 ;; Return value:  Size  Location     Type
  1526 ;;                  1    wreg      void 
  1527 ;; Registers used:
  1528 ;;		wreg
  1529 ;; Tracked objects:
  1530 ;;		On entry : 0/0
  1531 ;;		On exit  : 0/0
  1532 ;;		Unchanged: 0/0
  1533 ;; Data sizes:     COMRAM   BANK5   BANK6   BANK7   BANK8   BANK9  BANK10  BANK11  BANK12  BANK13  BANK14  BANK15  BANK1
      +6  BANK17  BANK18  BANK19  BANK20  BANK21  BANK22  BANK23  BANK24  BANK25  BANK26  BANK27  BANK28  BANK29  BANK30  BANK3
      +1  BANK32  BANK33  BANK34  BANK35  BANK36
  1534 ;;      Params:         0       0       0       0       0       0       0       0       0       0       0       0       
      +0       0       0       0       0       0       0       0       0       0       0       0       0       0       0       
      +0       0       0       0       0       0
  1535 ;;      Locals:         1       0       0       0       0       0       0       0       0       0       0       0       
      +0       0       0       0       0       0       0       0       0       0       0       0       0       0       0       
      +0       0       0       0       0       0
  1536 ;;      Temps:          0       0       0       0       0       0       0       0       0       0       0       0       
      +0       0       0       0       0       0       0       0       0       0       0       0       0       0       0       
      +0       0       0       0       0       0
  1537 ;;      Totals:         1       0       0       0       0       0       0       0       0       0       0       0       
      +0       0       0       0       0       0       0       0       0       0       0       0       0       0       0       
      +0       0       0       0       0       0
  1538 ;;Total ram usage:        1 bytes
  1539 ;; Hardware stack levels used: 1
  1540 ;; Hardware stack levels required when called: 4
  1541 ;; This function calls:
  1542 ;;		Nothing
  1543 ;; This function is called by:
  1544 ;;		_putch
  1545 ;; This function uses a non-reentrant model
  1546 ;;
  1547                           
  1548                           	psect	text6
  1549   00312C                     __ptext6:
  1550                           	callstack 0
  1551   00312C                     _UART1_Write:
  1552                           	callstack 117
  1553                           
  1554                           ;incstack = 0
  1555                           ;UART1_Write@txData stored from wreg
  1556   00312C  6E04               	movwf	UART1_Write@txData^(0+1280),c
  1557   00312E                     
  1558                           ;mcc_generated_files/uart/src/uart1.c: 287: void UART1_Write(uint8_t txData);mcc_generat
      +                          ed_files/uart/src/uart1.c: 288: {;mcc_generated_files/uart/src/uart1.c: 289:     U1TXB =
      +                           txData;
  1559   00312E  C504  F2A3         	movff	UART1_Write@txData,675	;volatile
  1560   003132  0012               	return		;funcret
  1561   003134                     __end_of_UART1_Write:
  1562                           	callstack 0
  1563                           
  1564 ;; *************** function _UART1_IsTxReady *****************
  1565 ;; Defined at:
  1566 ;;		line 247 in file "mcc_generated_files/uart/src/uart1.c"
  1567 ;; Parameters:    Size  Location     Type
  1568 ;;		None
  1569 ;; Auto vars:     Size  Location     Type
  1570 ;;		None
  1571 ;; Return value:  Size  Location     Type
  1572 ;;                  1    wreg      _Bool 
  1573 ;; Registers used:
  1574 ;;		wreg, status,2
  1575 ;; Tracked objects:
  1576 ;;		On entry : 0/0
  1577 ;;		On exit  : 0/0
  1578 ;;		Unchanged: 0/0
  1579 ;; Data sizes:     COMRAM   BANK5   BANK6   BANK7   BANK8   BANK9  BANK10  BANK11  BANK12  BANK13  BANK14  BANK15  BANK1
      +6  BANK17  BANK18  BANK19  BANK20  BANK21  BANK22  BANK23  BANK24  BANK25  BANK26  BANK27  BANK28  BANK29  BANK30  BANK3
      +1  BANK32  BANK33  BANK34  BANK35  BANK36
  1580 ;;      Params:         0       0       0       0       0       0       0       0       0       0       0       0       
      +0       0       0       0       0       0       0       0       0       0       0       0       0       0       0       
      +0       0       0       0       0       0
  1581 ;;      Locals:         1       0       0       0       0       0       0       0       0       0       0       0       
      +0       0       0       0       0       0       0       0       0       0       0       0       0       0       0       
      +0       0       0       0       0       0
  1582 ;;      Temps:          0       0       0       0       0       0       0       0       0       0       0       0       
      +0       0       0       0       0       0       0       0       0       0       0       0       0       0       0       
      +0       0       0       0       0       0
  1583 ;;      Totals:         1       0       0       0       0       0       0       0       0       0       0       0       
      +0       0       0       0       0       0       0       0       0       0       0       0       0       0       0       
      +0       0       0       0       0       0
  1584 ;;Total ram usage:        1 bytes
  1585 ;; Hardware stack levels used: 1
  1586 ;; Hardware stack levels required when called: 4
  1587 ;; This function calls:
  1588 ;;		Nothing
  1589 ;; This function is called by:
  1590 ;;		_putch
  1591 ;; This function uses a non-reentrant model
  1592 ;;
  1593                           
  1594                           	psect	text7
  1595   002E84                     __ptext7:
  1596                           	callstack 0
  1597   002E84                     _UART1_IsTxReady:
  1598                           	callstack 117
  1599   002E84                     
  1600                           ;mcc_generated_files/uart/src/uart1.c: 249:     return (_Bool)(U1FIFObits.TXBE && U1CON0
      +                          bits.TXEN);
  1601   002E84  0E00               	movlw	0
  1602   002E86  6E04               	movwf	_UART1_IsTxReady$1652^(0+1280),c
  1603   002E88  0102               	movlb	2	; () banked
  1604   002E8A  ABB0               	btfss	176,5,b	;volatile
  1605   002E8C  EF4A  F017         	goto	u771
  1606   002E90  EF4C  F017         	goto	u770
  1607   002E94                     u771:
  1608   002E94  EF55  F017         	goto	l682
  1609   002E98                     u770:
  1610   002E98                     
  1611                           ; BSR set to: 2
  1612   002E98  ABAB               	btfss	171,5,b	;volatile
  1613   002E9A  EF51  F017         	goto	u781
  1614   002E9E  EF53  F017         	goto	u780
  1615   002EA2                     u781:
  1616   002EA2  EF55  F017         	goto	l682
  1617   002EA6                     u780:
  1618   002EA6                     
  1619                           ; BSR set to: 2
  1620   002EA6  0E01               	movlw	1
  1621   002EA8  6E04               	movwf	_UART1_IsTxReady$1652^(0+1280),c
  1622   002EAA                     l682:
  1623                           
  1624                           ; BSR set to: 2
  1625   002EAA  5004               	movf	_UART1_IsTxReady$1652^(0+1280),w,c
  1626   002EAC                     
  1627                           ; BSR set to: 2
  1628   002EAC  0012               	return		;funcret
  1629   002EAE                     __end_of_UART1_IsTxReady:
  1630                           	callstack 0
  1631                           
  1632 ;; *************** function _SYSTEM_Initialize *****************
  1633 ;; Defined at:
  1634 ;;		line 38 in file "mcc_generated_files/system/src/system.c"
  1635 ;; Parameters:    Size  Location     Type
  1636 ;;		None
  1637 ;; Auto vars:     Size  Location     Type
  1638 ;;		None
  1639 ;; Return value:  Size  Location     Type
  1640 ;;                  1    wreg      void 
  1641 ;; Registers used:
  1642 ;;		wreg, status,2, status,0, cstack
  1643 ;; Tracked objects:
  1644 ;;		On entry : 0/0
  1645 ;;		On exit  : 0/0
  1646 ;;		Unchanged: 0/0
  1647 ;; Data sizes:     COMRAM   BANK5   BANK6   BANK7   BANK8   BANK9  BANK10  BANK11  BANK12  BANK13  BANK14  BANK15  BANK1
      +6  BANK17  BANK18  BANK19  BANK20  BANK21  BANK22  BANK23  BANK24  BANK25  BANK26  BANK27  BANK28  BANK29  BANK30  BANK3
      +1  BANK32  BANK33  BANK34  BANK35  BANK36
  1648 ;;      Params:         0       0       0       0       0       0       0       0       0       0       0       0       
      +0       0       0       0       0       0       0       0       0       0       0       0       0       0       0       
      +0       0       0       0       0       0
  1649 ;;      Locals:         0       0       0       0       0       0       0       0       0       0       0       0       
      +0       0       0       0       0       0       0       0       0       0       0       0       0       0       0       
      +0       0       0       0       0       0
  1650 ;;      Temps:          0       0       0       0       0       0       0       0       0       0       0       0       
      +0       0       0       0       0       0       0       0       0       0       0       0       0       0       0       
      +0       0       0       0       0       0
  1651 ;;      Totals:         0       0       0       0       0       0       0       0       0       0       0       0       
      +0       0       0       0       0       0       0       0       0       0       0       0       0       0       0       
      +0       0       0       0       0       0
  1652 ;;Total ram usage:        0 bytes
  1653 ;; Hardware stack levels used: 1
  1654 ;; Hardware stack levels required when called: 6
  1655 ;; This function calls:
  1656 ;;		_CLOCK_Initialize
  1657 ;;		_I2C1_Initialize
  1658 ;;		_INTERRUPT_Initialize
  1659 ;;		_PIN_MANAGER_Initialize
  1660 ;;		_UART1_Initialize
  1661 ;; This function is called by:
  1662 ;;		_main
  1663 ;; This function uses a non-reentrant model
  1664 ;;
  1665                           
  1666                           	psect	text8
  1667   003006                     __ptext8:
  1668                           	callstack 0
  1669   003006                     _SYSTEM_Initialize:
  1670                           	callstack 120
  1671   003006                     
  1672                           ;mcc_generated_files/system/src/system.c: 40:     CLOCK_Initialize();
  1673   003006  ECF5  F017         	call	_CLOCK_Initialize	;wreg free
  1674                           
  1675                           ;mcc_generated_files/system/src/system.c: 41:     PIN_MANAGER_Initialize();
  1676   00300A  EC9E  F013         	call	_PIN_MANAGER_Initialize	;wreg free
  1677   00300E                     
  1678                           ;mcc_generated_files/system/src/system.c: 42:     I2C1_Initialize();
  1679   00300E  EC31  F016         	call	_I2C1_Initialize	;wreg free
  1680   003012                     
  1681                           ;mcc_generated_files/system/src/system.c: 43:     UART1_Initialize();
  1682   003012  ECED  F015         	call	_UART1_Initialize	;wreg free
  1683   003016                     
  1684                           ;mcc_generated_files/system/src/system.c: 44:     INTERRUPT_Initialize();
  1685   003016  ECB1  F016         	call	_INTERRUPT_Initialize	;wreg free
  1686   00301A  0012               	return		;funcret
  1687   00301C                     __end_of_SYSTEM_Initialize:
  1688                           	callstack 0
  1689                           
  1690 ;; *************** function _UART1_Initialize *****************
  1691 ;; Defined at:
  1692 ;;		line 95 in file "mcc_generated_files/uart/src/uart1.c"
  1693 ;; Parameters:    Size  Location     Type
  1694 ;;		None
  1695 ;; Auto vars:     Size  Location     Type
  1696 ;;		None
  1697 ;; Return value:  Size  Location     Type
  1698 ;;                  1    wreg      void 
  1699 ;; Registers used:
  1700 ;;		wreg, status,2, status,0, cstack
  1701 ;; Tracked objects:
  1702 ;;		On entry : 0/0
  1703 ;;		On exit  : 0/0
  1704 ;;		Unchanged: 0/0
  1705 ;; Data sizes:     COMRAM   BANK5   BANK6   BANK7   BANK8   BANK9  BANK10  BANK11  BANK12  BANK13  BANK14  BANK15  BANK1
      +6  BANK17  BANK18  BANK19  BANK20  BANK21  BANK22  BANK23  BANK24  BANK25  BANK26  BANK27  BANK28  BANK29  BANK30  BANK3
      +1  BANK32  BANK33  BANK34  BANK35  BANK36
  1706 ;;      Params:         0       0       0       0       0       0       0       0       0       0       0       0       
      +0       0       0       0       0       0       0       0       0       0       0       0       0       0       0       
      +0       0       0       0       0       0
  1707 ;;      Locals:         0       0       0       0       0       0       0       0       0       0       0       0       
      +0       0       0       0       0       0       0       0       0       0       0       0       0       0       0       
      +0       0       0       0       0       0
  1708 ;;      Temps:          0       0       0       0       0       0       0       0       0       0       0       0       
      +0       0       0       0       0       0       0       0       0       0       0       0       0       0       0       
      +0       0       0       0       0       0
  1709 ;;      Totals:         0       0       0       0       0       0       0       0       0       0       0       0       
      +0       0       0       0       0       0       0       0       0       0       0       0       0       0       0       
      +0       0       0       0       0       0
  1710 ;;Total ram usage:        0 bytes
  1711 ;; Hardware stack levels used: 1
  1712 ;; Hardware stack levels required when called: 5
  1713 ;; This function calls:
  1714 ;;		_UART1_FramingErrorCallbackRegister
  1715 ;;		_UART1_OverrunErrorCallbackRegister
  1716 ;;		_UART1_ParityErrorCallbackRegister
  1717 ;; This function is called by:
  1718 ;;		_SYSTEM_Initialize
  1719 ;; This function uses a non-reentrant model
  1720 ;;
  1721                           
  1722                           	psect	text9
  1723   002BDA                     __ptext9:
  1724                           	callstack 0
  1725   002BDA                     _UART1_Initialize:
  1726                           	callstack 120
  1727   002BDA                     
  1728                           ;mcc_generated_files/uart/src/uart1.c: 101:     U1RXB = 0x0;
  1729   002BDA  0E00               	movlw	0
  1730   002BDC  0102               	movlb	2	; () banked
  1731   002BDE  6FA1               	movwf	161,b	;volatile
  1732                           
  1733                           ;mcc_generated_files/uart/src/uart1.c: 103:     U1RXCHK = 0x0;
  1734   002BE0  0E00               	movlw	0
  1735   002BE2  6FA2               	movwf	162,b	;volatile
  1736                           
  1737                           ;mcc_generated_files/uart/src/uart1.c: 105:     U1TXB = 0x0;
  1738   002BE4  0E00               	movlw	0
  1739   002BE6  6FA3               	movwf	163,b	;volatile
  1740                           
  1741                           ;mcc_generated_files/uart/src/uart1.c: 107:     U1TXCHK = 0x0;
  1742   002BE8  0E00               	movlw	0
  1743   002BEA  6FA4               	movwf	164,b	;volatile
  1744                           
  1745                           ;mcc_generated_files/uart/src/uart1.c: 109:     U1P1L = 0x0;
  1746   002BEC  0E00               	movlw	0
  1747   002BEE  6FA5               	movwf	165,b	;volatile
  1748                           
  1749                           ;mcc_generated_files/uart/src/uart1.c: 111:     U1P1H = 0x0;
  1750   002BF0  0E00               	movlw	0
  1751   002BF2  6FA6               	movwf	166,b	;volatile
  1752                           
  1753                           ;mcc_generated_files/uart/src/uart1.c: 113:     U1P2L = 0x0;
  1754   002BF4  0E00               	movlw	0
  1755   002BF6  6FA7               	movwf	167,b	;volatile
  1756                           
  1757                           ;mcc_generated_files/uart/src/uart1.c: 115:     U1P2H = 0x0;
  1758   002BF8  0E00               	movlw	0
  1759   002BFA  6FA8               	movwf	168,b	;volatile
  1760                           
  1761                           ;mcc_generated_files/uart/src/uart1.c: 117:     U1P3L = 0x0;
  1762   002BFC  0E00               	movlw	0
  1763   002BFE  6FA9               	movwf	169,b	;volatile
  1764                           
  1765                           ;mcc_generated_files/uart/src/uart1.c: 119:     U1P3H = 0x0;
  1766   002C00  0E00               	movlw	0
  1767   002C02  6FAA               	movwf	170,b	;volatile
  1768                           
  1769                           ;mcc_generated_files/uart/src/uart1.c: 121:     U1CON0 = 0xB0;
  1770   002C04  0EB0               	movlw	176
  1771   002C06  6FAB               	movwf	171,b	;volatile
  1772                           
  1773                           ;mcc_generated_files/uart/src/uart1.c: 123:     U1CON1 = 0x80;
  1774   002C08  0E80               	movlw	128
  1775   002C0A  6FAC               	movwf	172,b	;volatile
  1776                           
  1777                           ;mcc_generated_files/uart/src/uart1.c: 125:     U1CON2 = 0x8;
  1778   002C0C  0E08               	movlw	8
  1779   002C0E  6FAD               	movwf	173,b	;volatile
  1780                           
  1781                           ;mcc_generated_files/uart/src/uart1.c: 127:     U1BRGL = 0x8A;
  1782   002C10  0E8A               	movlw	138
  1783   002C12  6FAE               	movwf	174,b	;volatile
  1784                           
  1785                           ;mcc_generated_files/uart/src/uart1.c: 129:     U1BRGH = 0x0;
  1786   002C14  0E00               	movlw	0
  1787   002C16  6FAF               	movwf	175,b	;volatile
  1788                           
  1789                           ;mcc_generated_files/uart/src/uart1.c: 131:     U1FIFO = 0x2E;
  1790   002C18  0E2E               	movlw	46
  1791   002C1A  6FB0               	movwf	176,b	;volatile
  1792                           
  1793                           ;mcc_generated_files/uart/src/uart1.c: 133:     U1UIR = 0x0;
  1794   002C1C  0E00               	movlw	0
  1795   002C1E  6FB1               	movwf	177,b	;volatile
  1796                           
  1797                           ;mcc_generated_files/uart/src/uart1.c: 135:     U1ERRIR = 0x80;
  1798   002C20  0E80               	movlw	128
  1799   002C22  6FB2               	movwf	178,b	;volatile
  1800                           
  1801                           ;mcc_generated_files/uart/src/uart1.c: 137:     U1ERRIE = 0x0;
  1802   002C24  0E00               	movlw	0
  1803   002C26  6FB3               	movwf	179,b	;volatile
  1804   002C28                     
  1805                           ; BSR set to: 2
  1806                           ;mcc_generated_files/uart/src/uart1.c: 139:     UART1_FramingErrorCallbackRegister(UART1
      +                          _DefaultFramingErrorCallback);
  1807   002C28  0E00               	movlw	0
  1808   002C2A  6E04               	movwf	UART1_FramingErrorCallbackRegister@callbackHandler^(0+1280),c
  1809   002C2C  0E00               	movlw	0
  1810   002C2E  6E05               	movwf	(UART1_FramingErrorCallbackRegister@callbackHandler+1)^(0+1280),c
  1811   002C30  0E00               	movlw	0
  1812   002C32  6E06               	movwf	(UART1_FramingErrorCallbackRegister@callbackHandler+2)^(0+1280),c
  1813   002C34  ECC4  F017         	call	_UART1_FramingErrorCallbackRegister	;wreg free
  1814   002C38                     
  1815                           ;mcc_generated_files/uart/src/uart1.c: 140:     UART1_OverrunErrorCallbackRegister(UART1
      +                          _DefaultOverrunErrorCallback);
  1816   002C38  0E00               	movlw	0
  1817   002C3A  6E04               	movwf	UART1_OverrunErrorCallbackRegister@callbackHandler^(0+1280),c
  1818   002C3C  0E00               	movlw	0
  1819   002C3E  6E05               	movwf	(UART1_OverrunErrorCallbackRegister@callbackHandler+1)^(0+1280),c
  1820   002C40  0E00               	movlw	0
  1821   002C42  6E06               	movwf	(UART1_OverrunErrorCallbackRegister@callbackHandler+2)^(0+1280),c
  1822   002C44  ECB3  F017         	call	_UART1_OverrunErrorCallbackRegister	;wreg free
  1823   002C48                     
  1824                           ;mcc_generated_files/uart/src/uart1.c: 141:     UART1_ParityErrorCallbackRegister(UART1_
      +                          DefaultParityErrorCallback);
  1825   002C48  0E00               	movlw	0
  1826   002C4A  6E04               	movwf	UART1_ParityErrorCallbackRegister@callbackHandler^(0+1280),c
  1827   002C4C  0E00               	movlw	0
  1828   002C4E  6E05               	movwf	(UART1_ParityErrorCallbackRegister@callbackHandler+1)^(0+1280),c
  1829   002C50  0E00               	movlw	0
  1830   002C52  6E06               	movwf	(UART1_ParityErrorCallbackRegister@callbackHandler+2)^(0+1280),c
  1831   002C54  ECA2  F017         	call	_UART1_ParityErrorCallbackRegister	;wreg free
  1832   002C58                     
  1833                           ;mcc_generated_files/uart/src/uart1.c: 143:     uart1RxLastError.status = 0;
  1834   002C58  0E00               	movlw	0
  1835   002C5A  6E54               	movwf	(_uart1RxLastError+1)^(0+1280),c	;volatile
  1836   002C5C  0E00               	movlw	0
  1837   002C5E  6E53               	movwf	_uart1RxLastError^(0+1280),c	;volatile
  1838   002C60  0012               	return		;funcret
  1839   002C62                     __end_of_UART1_Initialize:
  1840                           	callstack 0
  1841                           
  1842 ;; *************** function _UART1_ParityErrorCallbackRegister *****************
  1843 ;; Defined at:
  1844 ;;		line 340 in file "mcc_generated_files/uart/src/uart1.c"
  1845 ;; Parameters:    Size  Location     Type
  1846 ;;  callbackHand    3    3[COMRAM] PTR FTN()void 
  1847 ;;		 -> UART1_DefaultParityErrorCallback(1), 
  1848 ;; Auto vars:     Size  Location     Type
  1849 ;;		None
  1850 ;; Return value:  Size  Location     Type
  1851 ;;                  1    wreg      void 
  1852 ;; Registers used:
  1853 ;;		wreg, status,2, status,0
  1854 ;; Tracked objects:
  1855 ;;		On entry : 0/0
  1856 ;;		On exit  : 0/0
  1857 ;;		Unchanged: 0/0
  1858 ;; Data sizes:     COMRAM   BANK5   BANK6   BANK7   BANK8   BANK9  BANK10  BANK11  BANK12  BANK13  BANK14  BANK15  BANK1
      +6  BANK17  BANK18  BANK19  BANK20  BANK21  BANK22  BANK23  BANK24  BANK25  BANK26  BANK27  BANK28  BANK29  BANK30  BANK3
      +1  BANK32  BANK33  BANK34  BANK35  BANK36
  1859 ;;      Params:         3       0       0       0       0       0       0       0       0       0       0       0       
      +0       0       0       0       0       0       0       0       0       0       0       0       0       0       0       
      +0       0       0       0       0       0
  1860 ;;      Locals:         0       0       0       0       0       0       0       0       0       0       0       0       
      +0       0       0       0       0       0       0       0       0       0       0       0       0       0       0       
      +0       0       0       0       0       0
  1861 ;;      Temps:          0       0       0       0       0       0       0       0       0       0       0       0       
      +0       0       0       0       0       0       0       0       0       0       0       0       0       0       0       
      +0       0       0       0       0       0
  1862 ;;      Totals:         3       0       0       0       0       0       0       0       0       0       0       0       
      +0       0       0       0       0       0       0       0       0       0       0       0       0       0       0       
      +0       0       0       0       0       0
  1863 ;;Total ram usage:        3 bytes
  1864 ;; Hardware stack levels used: 1
  1865 ;; Hardware stack levels required when called: 4
  1866 ;; This function calls:
  1867 ;;		Nothing
  1868 ;; This function is called by:
  1869 ;;		_UART1_Initialize
  1870 ;; This function uses a non-reentrant model
  1871 ;;
  1872                           
  1873                           	psect	text10
  1874   002F44                     __ptext10:
  1875                           	callstack 0
  1876   002F44                     _UART1_ParityErrorCallbackRegister:
  1877                           	callstack 120
  1878   002F44                     
  1879                           ;mcc_generated_files/uart/src/uart1.c: 340: void UART1_ParityErrorCallbackRegister(void 
      +                          (* callbackHandler)(void));mcc_generated_files/uart/src/uart1.c: 341: {;mcc_generated_fi
      +                          les/uart/src/uart1.c: 342:     if(((void*)0) != callbackHandler)
  1880   002F44  5004               	movf	UART1_ParityErrorCallbackRegister@callbackHandler^(0+1280),w,c
  1881   002F46  1005               	iorwf	(UART1_ParityErrorCallbackRegister@callbackHandler+1)^(0+1280),w,c
  1882   002F48  1006               	iorwf	(UART1_ParityErrorCallbackRegister@callbackHandler+2)^(0+1280),w,c
  1883   002F4A  B4D8               	btfsc	status,2,c
  1884   002F4C  EFAA  F017         	goto	u871
  1885   002F50  EFAC  F017         	goto	u870
  1886   002F54                     u871:
  1887   002F54  EFB2  F017         	goto	l732
  1888   002F58                     u870:
  1889   002F58                     
  1890                           ;mcc_generated_files/uart/src/uart1.c: 343:     {;mcc_generated_files/uart/src/uart1.c: 
      +                          344:         UART1_ParityErrorHandler = callbackHandler;
  1891   002F58  C504  F53A         	movff	UART1_ParityErrorCallbackRegister@callbackHandler,_UART1_ParityErrorHandler
  1892   002F5C  C505  F53B         	movff	UART1_ParityErrorCallbackRegister@callbackHandler+1,_UART1_ParityErrorHandler+1
  1893   002F60  C506  F53C         	movff	UART1_ParityErrorCallbackRegister@callbackHandler+2,_UART1_ParityErrorHandler+2
  1894   002F64                     l732:
  1895   002F64  0012               	return		;funcret
  1896   002F66                     __end_of_UART1_ParityErrorCallbackRegister:
  1897                           	callstack 0
  1898                           
  1899 ;; *************** function _UART1_OverrunErrorCallbackRegister *****************
  1900 ;; Defined at:
  1901 ;;		line 332 in file "mcc_generated_files/uart/src/uart1.c"
  1902 ;; Parameters:    Size  Location     Type
  1903 ;;  callbackHand    3    3[COMRAM] PTR FTN()void 
  1904 ;;		 -> UART1_DefaultOverrunErrorCallback(1), 
  1905 ;; Auto vars:     Size  Location     Type
  1906 ;;		None
  1907 ;; Return value:  Size  Location     Type
  1908 ;;                  1    wreg      void 
  1909 ;; Registers used:
  1910 ;;		wreg, status,2, status,0
  1911 ;; Tracked objects:
  1912 ;;		On entry : 0/0
  1913 ;;		On exit  : 0/0
  1914 ;;		Unchanged: 0/0
  1915 ;; Data sizes:     COMRAM   BANK5   BANK6   BANK7   BANK8   BANK9  BANK10  BANK11  BANK12  BANK13  BANK14  BANK15  BANK1
      +6  BANK17  BANK18  BANK19  BANK20  BANK21  BANK22  BANK23  BANK24  BANK25  BANK26  BANK27  BANK28  BANK29  BANK30  BANK3
      +1  BANK32  BANK33  BANK34  BANK35  BANK36
  1916 ;;      Params:         3       0       0       0       0       0       0       0       0       0       0       0       
      +0       0       0       0       0       0       0       0       0       0       0       0       0       0       0       
      +0       0       0       0       0       0
  1917 ;;      Locals:         0       0       0       0       0       0       0       0       0       0       0       0       
      +0       0       0       0       0       0       0       0       0       0       0       0       0       0       0       
      +0       0       0       0       0       0
  1918 ;;      Temps:          0       0       0       0       0       0       0       0       0       0       0       0       
      +0       0       0       0       0       0       0       0       0       0       0       0       0       0       0       
      +0       0       0       0       0       0
  1919 ;;      Totals:         3       0       0       0       0       0       0       0       0       0       0       0       
      +0       0       0       0       0       0       0       0       0       0       0       0       0       0       0       
      +0       0       0       0       0       0
  1920 ;;Total ram usage:        3 bytes
  1921 ;; Hardware stack levels used: 1
  1922 ;; Hardware stack levels required when called: 4
  1923 ;; This function calls:
  1924 ;;		Nothing
  1925 ;; This function is called by:
  1926 ;;		_UART1_Initialize
  1927 ;; This function uses a non-reentrant model
  1928 ;;
  1929                           
  1930                           	psect	text11
  1931   002F66                     __ptext11:
  1932                           	callstack 0
  1933   002F66                     _UART1_OverrunErrorCallbackRegister:
  1934                           	callstack 120
  1935   002F66                     
  1936                           ;mcc_generated_files/uart/src/uart1.c: 332: void UART1_OverrunErrorCallbackRegister(void
      +                           (* callbackHandler)(void));mcc_generated_files/uart/src/uart1.c: 333: {;mcc_generated_f
      +                          iles/uart/src/uart1.c: 334:     if(((void*)0) != callbackHandler)
  1937   002F66  5004               	movf	UART1_OverrunErrorCallbackRegister@callbackHandler^(0+1280),w,c
  1938   002F68  1005               	iorwf	(UART1_OverrunErrorCallbackRegister@callbackHandler+1)^(0+1280),w,c
  1939   002F6A  1006               	iorwf	(UART1_OverrunErrorCallbackRegister@callbackHandler+2)^(0+1280),w,c
  1940   002F6C  B4D8               	btfsc	status,2,c
  1941   002F6E  EFBB  F017         	goto	u861
  1942   002F72  EFBD  F017         	goto	u860
  1943   002F76                     u861:
  1944   002F76  EFC3  F017         	goto	l728
  1945   002F7A                     u860:
  1946   002F7A                     
  1947                           ;mcc_generated_files/uart/src/uart1.c: 335:     {;mcc_generated_files/uart/src/uart1.c: 
      +                          336:         UART1_OverrunErrorHandler = callbackHandler;
  1948   002F7A  C504  F53D         	movff	UART1_OverrunErrorCallbackRegister@callbackHandler,_UART1_OverrunErrorHandler
  1949   002F7E  C505  F53E         	movff	UART1_OverrunErrorCallbackRegister@callbackHandler+1,_UART1_OverrunErrorHandler+1
  1950   002F82  C506  F53F         	movff	UART1_OverrunErrorCallbackRegister@callbackHandler+2,_UART1_OverrunErrorHandler+2
  1951   002F86                     l728:
  1952   002F86  0012               	return		;funcret
  1953   002F88                     __end_of_UART1_OverrunErrorCallbackRegister:
  1954                           	callstack 0
  1955                           
  1956 ;; *************** function _UART1_FramingErrorCallbackRegister *****************
  1957 ;; Defined at:
  1958 ;;		line 324 in file "mcc_generated_files/uart/src/uart1.c"
  1959 ;; Parameters:    Size  Location     Type
  1960 ;;  callbackHand    3    3[COMRAM] PTR FTN()void 
  1961 ;;		 -> UART1_DefaultFramingErrorCallback(1), 
  1962 ;; Auto vars:     Size  Location     Type
  1963 ;;		None
  1964 ;; Return value:  Size  Location     Type
  1965 ;;                  1    wreg      void 
  1966 ;; Registers used:
  1967 ;;		wreg, status,2, status,0
  1968 ;; Tracked objects:
  1969 ;;		On entry : 0/0
  1970 ;;		On exit  : 0/0
  1971 ;;		Unchanged: 0/0
  1972 ;; Data sizes:     COMRAM   BANK5   BANK6   BANK7   BANK8   BANK9  BANK10  BANK11  BANK12  BANK13  BANK14  BANK15  BANK1
      +6  BANK17  BANK18  BANK19  BANK20  BANK21  BANK22  BANK23  BANK24  BANK25  BANK26  BANK27  BANK28  BANK29  BANK30  BANK3
      +1  BANK32  BANK33  BANK34  BANK35  BANK36
  1973 ;;      Params:         3       0       0       0       0       0       0       0       0       0       0       0       
      +0       0       0       0       0       0       0       0       0       0       0       0       0       0       0       
      +0       0       0       0       0       0
  1974 ;;      Locals:         0       0       0       0       0       0       0       0       0       0       0       0       
      +0       0       0       0       0       0       0       0       0       0       0       0       0       0       0       
      +0       0       0       0       0       0
  1975 ;;      Temps:          0       0       0       0       0       0       0       0       0       0       0       0       
      +0       0       0       0       0       0       0       0       0       0       0       0       0       0       0       
      +0       0       0       0       0       0
  1976 ;;      Totals:         3       0       0       0       0       0       0       0       0       0       0       0       
      +0       0       0       0       0       0       0       0       0       0       0       0       0       0       0       
      +0       0       0       0       0       0
  1977 ;;Total ram usage:        3 bytes
  1978 ;; Hardware stack levels used: 1
  1979 ;; Hardware stack levels required when called: 4
  1980 ;; This function calls:
  1981 ;;		Nothing
  1982 ;; This function is called by:
  1983 ;;		_UART1_Initialize
  1984 ;; This function uses a non-reentrant model
  1985 ;;
  1986                           
  1987                           	psect	text12
  1988   002F88                     __ptext12:
  1989                           	callstack 0
  1990   002F88                     _UART1_FramingErrorCallbackRegister:
  1991                           	callstack 120
  1992   002F88                     
  1993                           ;mcc_generated_files/uart/src/uart1.c: 324: void UART1_FramingErrorCallbackRegister(void
      +                           (* callbackHandler)(void));mcc_generated_files/uart/src/uart1.c: 325: {;mcc_generated_f
      +                          iles/uart/src/uart1.c: 326:     if(((void*)0) != callbackHandler)
  1994   002F88  5004               	movf	UART1_FramingErrorCallbackRegister@callbackHandler^(0+1280),w,c
  1995   002F8A  1005               	iorwf	(UART1_FramingErrorCallbackRegister@callbackHandler+1)^(0+1280),w,c
  1996   002F8C  1006               	iorwf	(UART1_FramingErrorCallbackRegister@callbackHandler+2)^(0+1280),w,c
  1997   002F8E  B4D8               	btfsc	status,2,c
  1998   002F90  EFCC  F017         	goto	u851
  1999   002F94  EFCE  F017         	goto	u850
  2000   002F98                     u851:
  2001   002F98  EFD4  F017         	goto	l724
  2002   002F9C                     u850:
  2003   002F9C                     
  2004                           ;mcc_generated_files/uart/src/uart1.c: 327:     {;mcc_generated_files/uart/src/uart1.c: 
      +                          328:         UART1_FramingErrorHandler = callbackHandler;
  2005   002F9C  C504  F540         	movff	UART1_FramingErrorCallbackRegister@callbackHandler,_UART1_FramingErrorHandler
  2006   002FA0  C505  F541         	movff	UART1_FramingErrorCallbackRegister@callbackHandler+1,_UART1_FramingErrorHandler+1
  2007   002FA4  C506  F542         	movff	UART1_FramingErrorCallbackRegister@callbackHandler+2,_UART1_FramingErrorHandler+2
  2008   002FA8                     l724:
  2009   002FA8  0012               	return		;funcret
  2010   002FAA                     __end_of_UART1_FramingErrorCallbackRegister:
  2011                           	callstack 0
  2012                           
  2013 ;; *************** function _PIN_MANAGER_Initialize *****************
  2014 ;; Defined at:
  2015 ;;		line 38 in file "mcc_generated_files/system/src/pins.c"
  2016 ;; Parameters:    Size  Location     Type
  2017 ;;		None
  2018 ;; Auto vars:     Size  Location     Type
  2019 ;;		None
  2020 ;; Return value:  Size  Location     Type
  2021 ;;                  1    wreg      void 
  2022 ;; Registers used:
  2023 ;;		wreg, status,2
  2024 ;; Tracked objects:
  2025 ;;		On entry : 0/0
  2026 ;;		On exit  : 0/0
  2027 ;;		Unchanged: 0/0
  2028 ;; Data sizes:     COMRAM   BANK5   BANK6   BANK7   BANK8   BANK9  BANK10  BANK11  BANK12  BANK13  BANK14  BANK15  BANK1
      +6  BANK17  BANK18  BANK19  BANK20  BANK21  BANK22  BANK23  BANK24  BANK25  BANK26  BANK27  BANK28  BANK29  BANK30  BANK3
      +1  BANK32  BANK33  BANK34  BANK35  BANK36
  2029 ;;      Params:         0       0       0       0       0       0       0       0       0       0       0       0       
      +0       0       0       0       0       0       0       0       0       0       0       0       0       0       0       
      +0       0       0       0       0       0
  2030 ;;      Locals:         0       0       0       0       0       0       0       0       0       0       0       0       
      +0       0       0       0       0       0       0       0       0       0       0       0       0       0       0       
      +0       0       0       0       0       0
  2031 ;;      Temps:          0       0       0       0       0       0       0       0       0       0       0       0       
      +0       0       0       0       0       0       0       0       0       0       0       0       0       0       0       
      +0       0       0       0       0       0
  2032 ;;      Totals:         0       0       0       0       0       0       0       0       0       0       0       0       
      +0       0       0       0       0       0       0       0       0       0       0       0       0       0       0       
      +0       0       0       0       0       0
  2033 ;;Total ram usage:        0 bytes
  2034 ;; Hardware stack levels used: 1
  2035 ;; Hardware stack levels required when called: 4
  2036 ;; This function calls:
  2037 ;;		Nothing
  2038 ;; This function is called by:
  2039 ;;		_SYSTEM_Initialize
  2040 ;; This function uses a non-reentrant model
  2041 ;;
  2042                           
  2043                           	psect	text13
  2044   00273C                     __ptext13:
  2045                           	callstack 0
  2046   00273C                     _PIN_MANAGER_Initialize:
  2047                           	callstack 121
  2048   00273C                     
  2049                           ;mcc_generated_files/system/src/pins.c: 43:     LATA = 0x0;
  2050   00273C  0E00               	movlw	0
  2051   00273E  6EBE               	movwf	190,c	;volatile
  2052                           
  2053                           ;mcc_generated_files/system/src/pins.c: 44:     LATB = 0x0;
  2054   002740  0E00               	movlw	0
  2055   002742  6EBF               	movwf	191,c	;volatile
  2056                           
  2057                           ;mcc_generated_files/system/src/pins.c: 45:     LATC = 0x18;
  2058   002744  0E18               	movlw	24
  2059   002746  6EC0               	movwf	192,c	;volatile
  2060                           
  2061                           ;mcc_generated_files/system/src/pins.c: 46:     LATD = 0x0;
  2062   002748  0E00               	movlw	0
  2063   00274A  6EC1               	movwf	193,c	;volatile
  2064                           
  2065                           ;mcc_generated_files/system/src/pins.c: 47:     LATE = 0x0;
  2066   00274C  0E00               	movlw	0
  2067   00274E  6EC2               	movwf	194,c	;volatile
  2068                           
  2069                           ;mcc_generated_files/system/src/pins.c: 48:     LATF = 0x0;
  2070   002750  0E00               	movlw	0
  2071   002752  6EC3               	movwf	195,c	;volatile
  2072   002754                     
  2073                           ;mcc_generated_files/system/src/pins.c: 53:     TRISA = 0xFF;
  2074   002754  68C6               	setf	198,c	;volatile
  2075   002756                     
  2076                           ;mcc_generated_files/system/src/pins.c: 54:     TRISB = 0xFF;
  2077   002756  68C7               	setf	199,c	;volatile
  2078                           
  2079                           ;mcc_generated_files/system/src/pins.c: 55:     TRISC = 0xE7;
  2080   002758  0EE7               	movlw	231
  2081   00275A  6EC8               	movwf	200,c	;volatile
  2082   00275C                     
  2083                           ;mcc_generated_files/system/src/pins.c: 56:     TRISD = 0xFF;
  2084   00275C  68C9               	setf	201,c	;volatile
  2085                           
  2086                           ;mcc_generated_files/system/src/pins.c: 57:     TRISE = 0xF;
  2087   00275E  0E0F               	movlw	15
  2088   002760  6ECA               	movwf	202,c	;volatile
  2089                           
  2090                           ;mcc_generated_files/system/src/pins.c: 58:     TRISF = 0xFE;
  2091   002762  0EFE               	movlw	254
  2092   002764  6ECB               	movwf	203,c	;volatile
  2093   002766                     
  2094                           ;mcc_generated_files/system/src/pins.c: 63:     ANSELA = 0xFF;
  2095   002766  0104               	movlb	4	; () banked
  2096   002768  6900               	setf	0,b	;volatile
  2097   00276A                     
  2098                           ; BSR set to: 4
  2099                           ;mcc_generated_files/system/src/pins.c: 64:     ANSELB = 0xFF;
  2100   00276A  6908               	setf	8,b	;volatile
  2101                           
  2102                           ;mcc_generated_files/system/src/pins.c: 65:     ANSELC = 0xE7;
  2103   00276C  0EE7               	movlw	231
  2104   00276E  6F10               	movwf	16,b	;volatile
  2105   002770                     
  2106                           ; BSR set to: 4
  2107                           ;mcc_generated_files/system/src/pins.c: 66:     ANSELD = 0xFF;
  2108   002770  6918               	setf	24,b	;volatile
  2109                           
  2110                           ;mcc_generated_files/system/src/pins.c: 67:     ANSELE = 0x7;
  2111   002772  0E07               	movlw	7
  2112   002774  6F20               	movwf	32,b	;volatile
  2113                           
  2114                           ;mcc_generated_files/system/src/pins.c: 68:     ANSELF = 0xFC;
  2115   002776  0EFC               	movlw	252
  2116   002778  6F28               	movwf	40,b	;volatile
  2117                           
  2118                           ;mcc_generated_files/system/src/pins.c: 73:     WPUA = 0x0;
  2119   00277A  0E00               	movlw	0
  2120   00277C  6F01               	movwf	1,b	;volatile
  2121                           
  2122                           ;mcc_generated_files/system/src/pins.c: 74:     WPUB = 0x0;
  2123   00277E  0E00               	movlw	0
  2124   002780  6F09               	movwf	9,b	;volatile
  2125                           
  2126                           ;mcc_generated_files/system/src/pins.c: 75:     WPUC = 0x18;
  2127   002782  0E18               	movlw	24
  2128   002784  6F11               	movwf	17,b	;volatile
  2129                           
  2130                           ;mcc_generated_files/system/src/pins.c: 76:     WPUD = 0x0;
  2131   002786  0E00               	movlw	0
  2132   002788  6F19               	movwf	25,b	;volatile
  2133                           
  2134                           ;mcc_generated_files/system/src/pins.c: 77:     WPUE = 0x0;
  2135   00278A  0E00               	movlw	0
  2136   00278C  6F21               	movwf	33,b	;volatile
  2137                           
  2138                           ;mcc_generated_files/system/src/pins.c: 78:     WPUF = 0x0;
  2139   00278E  0E00               	movlw	0
  2140   002790  6F29               	movwf	41,b	;volatile
  2141                           
  2142                           ;mcc_generated_files/system/src/pins.c: 83:     ODCONA = 0x0;
  2143   002792  0E00               	movlw	0
  2144   002794  6F02               	movwf	2,b	;volatile
  2145                           
  2146                           ;mcc_generated_files/system/src/pins.c: 84:     ODCONB = 0x0;
  2147   002796  0E00               	movlw	0
  2148   002798  6F0A               	movwf	10,b	;volatile
  2149                           
  2150                           ;mcc_generated_files/system/src/pins.c: 85:     ODCONC = 0x18;
  2151   00279A  0E18               	movlw	24
  2152   00279C  6F12               	movwf	18,b	;volatile
  2153                           
  2154                           ;mcc_generated_files/system/src/pins.c: 86:     ODCOND = 0x0;
  2155   00279E  0E00               	movlw	0
  2156   0027A0  6F1A               	movwf	26,b	;volatile
  2157                           
  2158                           ;mcc_generated_files/system/src/pins.c: 87:     ODCONE = 0x0;
  2159   0027A2  0E00               	movlw	0
  2160   0027A4  6F22               	movwf	34,b	;volatile
  2161                           
  2162                           ;mcc_generated_files/system/src/pins.c: 88:     ODCONF = 0x0;
  2163   0027A6  0E00               	movlw	0
  2164   0027A8  6F2A               	movwf	42,b	;volatile
  2165   0027AA                     
  2166                           ; BSR set to: 4
  2167                           ;mcc_generated_files/system/src/pins.c: 93:     SLRCONA = 0xFF;
  2168   0027AA  6903               	setf	3,b	;volatile
  2169   0027AC                     
  2170                           ; BSR set to: 4
  2171                           ;mcc_generated_files/system/src/pins.c: 94:     SLRCONB = 0xFF;
  2172   0027AC  690B               	setf	11,b	;volatile
  2173   0027AE                     
  2174                           ; BSR set to: 4
  2175                           ;mcc_generated_files/system/src/pins.c: 95:     SLRCONC = 0xFF;
  2176   0027AE  6913               	setf	19,b	;volatile
  2177   0027B0                     
  2178                           ; BSR set to: 4
  2179                           ;mcc_generated_files/system/src/pins.c: 96:     SLRCOND = 0xFF;
  2180   0027B0  691B               	setf	27,b	;volatile
  2181                           
  2182                           ;mcc_generated_files/system/src/pins.c: 97:     SLRCONE = 0x7;
  2183   0027B2  0E07               	movlw	7
  2184   0027B4  6F23               	movwf	35,b	;volatile
  2185   0027B6                     
  2186                           ; BSR set to: 4
  2187                           ;mcc_generated_files/system/src/pins.c: 98:     SLRCONF = 0xFF;
  2188   0027B6  692B               	setf	43,b	;volatile
  2189   0027B8                     
  2190                           ; BSR set to: 4
  2191                           ;mcc_generated_files/system/src/pins.c: 103:     INLVLA = 0xFF;
  2192   0027B8  6904               	setf	4,b	;volatile
  2193   0027BA                     
  2194                           ; BSR set to: 4
  2195                           ;mcc_generated_files/system/src/pins.c: 104:     INLVLB = 0xFF;
  2196   0027BA  690C               	setf	12,b	;volatile
  2197   0027BC                     
  2198                           ; BSR set to: 4
  2199                           ;mcc_generated_files/system/src/pins.c: 105:     INLVLC = 0xFF;
  2200   0027BC  6914               	setf	20,b	;volatile
  2201   0027BE                     
  2202                           ; BSR set to: 4
  2203                           ;mcc_generated_files/system/src/pins.c: 106:     INLVLD = 0xFF;
  2204   0027BE  691C               	setf	28,b	;volatile
  2205                           
  2206                           ;mcc_generated_files/system/src/pins.c: 107:     INLVLE = 0xF;
  2207   0027C0  0E0F               	movlw	15
  2208   0027C2  6F24               	movwf	36,b	;volatile
  2209   0027C4                     
  2210                           ; BSR set to: 4
  2211                           ;mcc_generated_files/system/src/pins.c: 108:     INLVLF = 0xFF;
  2212   0027C4  692C               	setf	44,b	;volatile
  2213                           
  2214                           ;mcc_generated_files/system/src/pins.c: 113:     RB1I2C = 0x0;
  2215   0027C6  0E00               	movlw	0
  2216   0027C8  0102               	movlb	2	; () banked
  2217   0027CA  6F89               	movwf	137,b	;volatile
  2218                           
  2219                           ;mcc_generated_files/system/src/pins.c: 114:     RB2I2C = 0x0;
  2220   0027CC  0E00               	movlw	0
  2221   0027CE  6F88               	movwf	136,b	;volatile
  2222                           
  2223                           ;mcc_generated_files/system/src/pins.c: 115:     RC3I2C = 0x0;
  2224   0027D0  0E00               	movlw	0
  2225   0027D2  6F87               	movwf	135,b	;volatile
  2226                           
  2227                           ;mcc_generated_files/system/src/pins.c: 116:     RC4I2C = 0x1;
  2228   0027D4  0E01               	movlw	1
  2229   0027D6  6F86               	movwf	134,b	;volatile
  2230                           
  2231                           ;mcc_generated_files/system/src/pins.c: 120:     U1RXPPS = 0x29;
  2232   0027D8  0E29               	movlw	41
  2233   0027DA  6F72               	movwf	114,b	;volatile
  2234                           
  2235                           ;mcc_generated_files/system/src/pins.c: 121:     RF0PPS = 0x20;
  2236   0027DC  0E20               	movlw	32
  2237   0027DE  6F29               	movwf	41,b	;volatile
  2238                           
  2239                           ;mcc_generated_files/system/src/pins.c: 122:     I2C1SCLPPS = 0x13;
  2240   0027E0  0E13               	movlw	19
  2241   0027E2  6F71               	movwf	113,b	;volatile
  2242                           
  2243                           ;mcc_generated_files/system/src/pins.c: 123:     RC3PPS = 0x37;
  2244   0027E4  0E37               	movlw	55
  2245   0027E6  6F14               	movwf	20,b	;volatile
  2246                           
  2247                           ;mcc_generated_files/system/src/pins.c: 124:     I2C1SDAPPS = 0x14;
  2248   0027E8  0E14               	movlw	20
  2249   0027EA  6F70               	movwf	112,b	;volatile
  2250                           
  2251                           ;mcc_generated_files/system/src/pins.c: 125:     RC4PPS = 0x38;
  2252   0027EC  0E38               	movlw	56
  2253   0027EE  6F15               	movwf	21,b	;volatile
  2254                           
  2255                           ;mcc_generated_files/system/src/pins.c: 130:     IOCAP = 0x0;
  2256   0027F0  0E00               	movlw	0
  2257   0027F2  0104               	movlb	4	; () banked
  2258   0027F4  6F05               	movwf	5,b	;volatile
  2259                           
  2260                           ;mcc_generated_files/system/src/pins.c: 131:     IOCAN = 0x0;
  2261   0027F6  0E00               	movlw	0
  2262   0027F8  6F06               	movwf	6,b	;volatile
  2263                           
  2264                           ;mcc_generated_files/system/src/pins.c: 132:     IOCAF = 0x0;
  2265   0027FA  0E00               	movlw	0
  2266   0027FC  6F07               	movwf	7,b	;volatile
  2267                           
  2268                           ;mcc_generated_files/system/src/pins.c: 133:     IOCBP = 0x0;
  2269   0027FE  0E00               	movlw	0
  2270   002800  6F0D               	movwf	13,b	;volatile
  2271                           
  2272                           ;mcc_generated_files/system/src/pins.c: 134:     IOCBN = 0x0;
  2273   002802  0E00               	movlw	0
  2274   002804  6F0E               	movwf	14,b	;volatile
  2275                           
  2276                           ;mcc_generated_files/system/src/pins.c: 135:     IOCBF = 0x0;
  2277   002806  0E00               	movlw	0
  2278   002808  6F0F               	movwf	15,b	;volatile
  2279                           
  2280                           ;mcc_generated_files/system/src/pins.c: 136:     IOCCP = 0x0;
  2281   00280A  0E00               	movlw	0
  2282   00280C  6F15               	movwf	21,b	;volatile
  2283                           
  2284                           ;mcc_generated_files/system/src/pins.c: 137:     IOCCN = 0x0;
  2285   00280E  0E00               	movlw	0
  2286   002810  6F16               	movwf	22,b	;volatile
  2287                           
  2288                           ;mcc_generated_files/system/src/pins.c: 138:     IOCCF = 0x0;
  2289   002812  0E00               	movlw	0
  2290   002814  6F17               	movwf	23,b	;volatile
  2291                           
  2292                           ;mcc_generated_files/system/src/pins.c: 139:     IOCEP = 0x0;
  2293   002816  0E00               	movlw	0
  2294   002818  6F25               	movwf	37,b	;volatile
  2295                           
  2296                           ;mcc_generated_files/system/src/pins.c: 140:     IOCEN = 0x0;
  2297   00281A  0E00               	movlw	0
  2298   00281C  6F26               	movwf	38,b	;volatile
  2299                           
  2300                           ;mcc_generated_files/system/src/pins.c: 141:     IOCEF = 0x0;
  2301   00281E  0E00               	movlw	0
  2302   002820  6F27               	movwf	39,b	;volatile
  2303   002822                     
  2304                           ; BSR set to: 4
  2305   002822  0012               	return		;funcret
  2306   002824                     __end_of_PIN_MANAGER_Initialize:
  2307                           	callstack 0
  2308                           
  2309 ;; *************** function _INTERRUPT_Initialize *****************
  2310 ;; Defined at:
  2311 ;;		line 42 in file "mcc_generated_files/system/src/interrupt.c"
  2312 ;; Parameters:    Size  Location     Type
  2313 ;;		None
  2314 ;; Auto vars:     Size  Location     Type
  2315 ;;		None
  2316 ;; Return value:  Size  Location     Type
  2317 ;;                  1    wreg      void 
  2318 ;; Registers used:
  2319 ;;		wreg, status,2, status,0, cstack
  2320 ;; Tracked objects:
  2321 ;;		On entry : 0/0
  2322 ;;		On exit  : 0/0
  2323 ;;		Unchanged: 0/0
  2324 ;; Data sizes:     COMRAM   BANK5   BANK6   BANK7   BANK8   BANK9  BANK10  BANK11  BANK12  BANK13  BANK14  BANK15  BANK1
      +6  BANK17  BANK18  BANK19  BANK20  BANK21  BANK22  BANK23  BANK24  BANK25  BANK26  BANK27  BANK28  BANK29  BANK30  BANK3
      +1  BANK32  BANK33  BANK34  BANK35  BANK36
  2325 ;;      Params:         0       0       0       0       0       0       0       0       0       0       0       0       
      +0       0       0       0       0       0       0       0       0       0       0       0       0       0       0       
      +0       0       0       0       0       0
  2326 ;;      Locals:         0       0       0       0       0       0       0       0       0       0       0       0       
      +0       0       0       0       0       0       0       0       0       0       0       0       0       0       0       
      +0       0       0       0       0       0
  2327 ;;      Temps:          0       0       0       0       0       0       0       0       0       0       0       0       
      +0       0       0       0       0       0       0       0       0       0       0       0       0       0       0       
      +0       0       0       0       0       0
  2328 ;;      Totals:         0       0       0       0       0       0       0       0       0       0       0       0       
      +0       0       0       0       0       0       0       0       0       0       0       0       0       0       0       
      +0       0       0       0       0       0
  2329 ;;Total ram usage:        0 bytes
  2330 ;; Hardware stack levels used: 1
  2331 ;; Hardware stack levels required when called: 5
  2332 ;; This function calls:
  2333 ;;		_INT0_SetInterruptHandler
  2334 ;;		_INT1_SetInterruptHandler
  2335 ;;		_INT2_SetInterruptHandler
  2336 ;; This function is called by:
  2337 ;;		_SYSTEM_Initialize
  2338 ;; This function uses a non-reentrant model
  2339 ;;
  2340                           
  2341                           	psect	text14
  2342   002D62                     __ptext14:
  2343                           	callstack 0
  2344   002D62                     _INTERRUPT_Initialize:
  2345                           	callstack 120
  2346   002D62                     
  2347                           ;mcc_generated_files/system/src/interrupt.c: 45:     INTCON0bits.IPEN = 0;
  2348   002D62  9AD6               	bcf	214,5,c	;volatile
  2349                           
  2350                           ;mcc_generated_files/system/src/interrupt.c: 49:     (PIR1bits.INT0IF = 0);
  2351   002D64  90AF               	bcf	175,0,c	;volatile
  2352                           
  2353                           ;mcc_generated_files/system/src/interrupt.c: 50:     (INTCON0bits.INT0EDG = 1);
  2354   002D66  80D6               	bsf	214,0,c	;volatile
  2355   002D68                     
  2356                           ;mcc_generated_files/system/src/interrupt.c: 52:     INT0_SetInterruptHandler(INT0_Defau
      +                          ltInterruptHandler);
  2357   002D68  0E00               	movlw	0
  2358   002D6A  6E04               	movwf	INT0_SetInterruptHandler@InterruptHandler^(0+1280),c
  2359   002D6C  0E00               	movlw	0
  2360   002D6E  6E05               	movwf	(INT0_SetInterruptHandler@InterruptHandler+1)^(0+1280),c
  2361   002D70  0E00               	movlw	0
  2362   002D72  6E06               	movwf	(INT0_SetInterruptHandler@InterruptHandler+2)^(0+1280),c
  2363   002D74  EC85  F018         	call	_INT0_SetInterruptHandler	;wreg free
  2364   002D78                     
  2365                           ;mcc_generated_files/system/src/interrupt.c: 57:     (PIR6bits.INT1IF = 0);
  2366   002D78  90B4               	bcf	180,0,c	;volatile
  2367   002D7A                     
  2368                           ;mcc_generated_files/system/src/interrupt.c: 58:     (INTCON0bits.INT1EDG = 1);
  2369   002D7A  82D6               	bsf	214,1,c	;volatile
  2370                           
  2371                           ;mcc_generated_files/system/src/interrupt.c: 60:     INT1_SetInterruptHandler(INT1_Defau
      +                          ltInterruptHandler);
  2372   002D7C  0E00               	movlw	0
  2373   002D7E  6E04               	movwf	INT1_SetInterruptHandler@InterruptHandler^(0+1280),c
  2374   002D80  0E00               	movlw	0
  2375   002D82  6E05               	movwf	(INT1_SetInterruptHandler@InterruptHandler+1)^(0+1280),c
  2376   002D84  0E00               	movlw	0
  2377   002D86  6E06               	movwf	(INT1_SetInterruptHandler@InterruptHandler+2)^(0+1280),c
  2378   002D88  EC7E  F018         	call	_INT1_SetInterruptHandler	;wreg free
  2379   002D8C                     
  2380                           ;mcc_generated_files/system/src/interrupt.c: 65:     (PIR10bits.INT2IF = 0);
  2381   002D8C  90B8               	bcf	184,0,c	;volatile
  2382   002D8E                     
  2383                           ;mcc_generated_files/system/src/interrupt.c: 66:     (INTCON0bits.INT2EDG = 1);
  2384   002D8E  84D6               	bsf	214,2,c	;volatile
  2385                           
  2386                           ;mcc_generated_files/system/src/interrupt.c: 68:     INT2_SetInterruptHandler(INT2_Defau
      +                          ltInterruptHandler);
  2387   002D90  0E00               	movlw	0
  2388   002D92  6E04               	movwf	INT2_SetInterruptHandler@InterruptHandler^(0+1280),c
  2389   002D94  0E00               	movlw	0
  2390   002D96  6E05               	movwf	(INT2_SetInterruptHandler@InterruptHandler+1)^(0+1280),c
  2391   002D98  0E00               	movlw	0
  2392   002D9A  6E06               	movwf	(INT2_SetInterruptHandler@InterruptHandler+2)^(0+1280),c
  2393   002D9C  EC77  F018         	call	_INT2_SetInterruptHandler	;wreg free
  2394   002DA0  0012               	return		;funcret
  2395   002DA2                     __end_of_INTERRUPT_Initialize:
  2396                           	callstack 0
  2397                           
  2398 ;; *************** function _INT2_SetInterruptHandler *****************
  2399 ;; Defined at:
  2400 ;;		line 175 in file "mcc_generated_files/system/src/interrupt.c"
  2401 ;; Parameters:    Size  Location     Type
  2402 ;;  InterruptHan    3    3[COMRAM] PTR FTN()void 
  2403 ;;		 -> INT2_DefaultInterruptHandler(1), 
  2404 ;; Auto vars:     Size  Location     Type
  2405 ;;		None
  2406 ;; Return value:  Size  Location     Type
  2407 ;;                  1    wreg      void 
  2408 ;; Registers used:
  2409 ;;		wreg, status,2, status,0
  2410 ;; Tracked objects:
  2411 ;;		On entry : 0/0
  2412 ;;		On exit  : 0/0
  2413 ;;		Unchanged: 0/0
  2414 ;; Data sizes:     COMRAM   BANK5   BANK6   BANK7   BANK8   BANK9  BANK10  BANK11  BANK12  BANK13  BANK14  BANK15  BANK1
      +6  BANK17  BANK18  BANK19  BANK20  BANK21  BANK22  BANK23  BANK24  BANK25  BANK26  BANK27  BANK28  BANK29  BANK30  BANK3
      +1  BANK32  BANK33  BANK34  BANK35  BANK36
  2415 ;;      Params:         3       0       0       0       0       0       0       0       0       0       0       0       
      +0       0       0       0       0       0       0       0       0       0       0       0       0       0       0       
      +0       0       0       0       0       0
  2416 ;;      Locals:         0       0       0       0       0       0       0       0       0       0       0       0       
      +0       0       0       0       0       0       0       0       0       0       0       0       0       0       0       
      +0       0       0       0       0       0
  2417 ;;      Temps:          0       0       0       0       0       0       0       0       0       0       0       0       
      +0       0       0       0       0       0       0       0       0       0       0       0       0       0       0       
      +0       0       0       0       0       0
  2418 ;;      Totals:         3       0       0       0       0       0       0       0       0       0       0       0       
      +0       0       0       0       0       0       0       0       0       0       0       0       0       0       0       
      +0       0       0       0       0       0
  2419 ;;Total ram usage:        3 bytes
  2420 ;; Hardware stack levels used: 1
  2421 ;; Hardware stack levels required when called: 4
  2422 ;; This function calls:
  2423 ;;		Nothing
  2424 ;; This function is called by:
  2425 ;;		_INTERRUPT_Initialize
  2426 ;; This function uses a non-reentrant model
  2427 ;;
  2428                           
  2429                           	psect	text15
  2430   0030EE                     __ptext15:
  2431                           	callstack 0
  2432   0030EE                     _INT2_SetInterruptHandler:
  2433                           	callstack 120
  2434   0030EE                     
  2435                           ;mcc_generated_files/system/src/interrupt.c: 176:     INT2_InterruptHandler = InterruptH
      +                          andler;
  2436   0030EE  C504  F543         	movff	INT2_SetInterruptHandler@InterruptHandler,_INT2_InterruptHandler
  2437   0030F2  C505  F544         	movff	INT2_SetInterruptHandler@InterruptHandler+1,_INT2_InterruptHandler+1
  2438   0030F6  C506  F545         	movff	INT2_SetInterruptHandler@InterruptHandler+2,_INT2_InterruptHandler+2
  2439   0030FA  0012               	return		;funcret
  2440   0030FC                     __end_of_INT2_SetInterruptHandler:
  2441                           	callstack 0
  2442                           
  2443 ;; *************** function _INT1_SetInterruptHandler *****************
  2444 ;; Defined at:
  2445 ;;		line 149 in file "mcc_generated_files/system/src/interrupt.c"
  2446 ;; Parameters:    Size  Location     Type
  2447 ;;  InterruptHan    3    3[COMRAM] PTR FTN()void 
  2448 ;;		 -> INT1_DefaultInterruptHandler(1), 
  2449 ;; Auto vars:     Size  Location     Type
  2450 ;;		None
  2451 ;; Return value:  Size  Location     Type
  2452 ;;                  1    wreg      void 
  2453 ;; Registers used:
  2454 ;;		wreg, status,2, status,0
  2455 ;; Tracked objects:
  2456 ;;		On entry : 0/0
  2457 ;;		On exit  : 0/0
  2458 ;;		Unchanged: 0/0
  2459 ;; Data sizes:     COMRAM   BANK5   BANK6   BANK7   BANK8   BANK9  BANK10  BANK11  BANK12  BANK13  BANK14  BANK15  BANK1
      +6  BANK17  BANK18  BANK19  BANK20  BANK21  BANK22  BANK23  BANK24  BANK25  BANK26  BANK27  BANK28  BANK29  BANK30  BANK3
      +1  BANK32  BANK33  BANK34  BANK35  BANK36
  2460 ;;      Params:         3       0       0       0       0       0       0       0       0       0       0       0       
      +0       0       0       0       0       0       0       0       0       0       0       0       0       0       0       
      +0       0       0       0       0       0
  2461 ;;      Locals:         0       0       0       0       0       0       0       0       0       0       0       0       
      +0       0       0       0       0       0       0       0       0       0       0       0       0       0       0       
      +0       0       0       0       0       0
  2462 ;;      Temps:          0       0       0       0       0       0       0       0       0       0       0       0       
      +0       0       0       0       0       0       0       0       0       0       0       0       0       0       0       
      +0       0       0       0       0       0
  2463 ;;      Totals:         3       0       0       0       0       0       0       0       0       0       0       0       
      +0       0       0       0       0       0       0       0       0       0       0       0       0       0       0       
      +0       0       0       0       0       0
  2464 ;;Total ram usage:        3 bytes
  2465 ;; Hardware stack levels used: 1
  2466 ;; Hardware stack levels required when called: 4
  2467 ;; This function calls:
  2468 ;;		Nothing
  2469 ;; This function is called by:
  2470 ;;		_INTERRUPT_Initialize
  2471 ;; This function uses a non-reentrant model
  2472 ;;
  2473                           
  2474                           	psect	text16
  2475   0030FC                     __ptext16:
  2476                           	callstack 0
  2477   0030FC                     _INT1_SetInterruptHandler:
  2478                           	callstack 120
  2479   0030FC                     
  2480                           ;mcc_generated_files/system/src/interrupt.c: 150:     INT1_InterruptHandler = InterruptH
      +                          andler;
  2481   0030FC  C504  F546         	movff	INT1_SetInterruptHandler@InterruptHandler,_INT1_InterruptHandler
  2482   003100  C505  F547         	movff	INT1_SetInterruptHandler@InterruptHandler+1,_INT1_InterruptHandler+1
  2483   003104  C506  F548         	movff	INT1_SetInterruptHandler@InterruptHandler+2,_INT1_InterruptHandler+2
  2484   003108  0012               	return		;funcret
  2485   00310A                     __end_of_INT1_SetInterruptHandler:
  2486                           	callstack 0
  2487                           
  2488 ;; *************** function _INT0_SetInterruptHandler *****************
  2489 ;; Defined at:
  2490 ;;		line 123 in file "mcc_generated_files/system/src/interrupt.c"
  2491 ;; Parameters:    Size  Location     Type
  2492 ;;  InterruptHan    3    3[COMRAM] PTR FTN()void 
  2493 ;;		 -> INT0_DefaultInterruptHandler(1), 
  2494 ;; Auto vars:     Size  Location     Type
  2495 ;;		None
  2496 ;; Return value:  Size  Location     Type
  2497 ;;                  1    wreg      void 
  2498 ;; Registers used:
  2499 ;;		wreg, status,2, status,0
  2500 ;; Tracked objects:
  2501 ;;		On entry : 0/0
  2502 ;;		On exit  : 0/0
  2503 ;;		Unchanged: 0/0
  2504 ;; Data sizes:     COMRAM   BANK5   BANK6   BANK7   BANK8   BANK9  BANK10  BANK11  BANK12  BANK13  BANK14  BANK15  BANK1
      +6  BANK17  BANK18  BANK19  BANK20  BANK21  BANK22  BANK23  BANK24  BANK25  BANK26  BANK27  BANK28  BANK29  BANK30  BANK3
      +1  BANK32  BANK33  BANK34  BANK35  BANK36
  2505 ;;      Params:         3       0       0       0       0       0       0       0       0       0       0       0       
      +0       0       0       0       0       0       0       0       0       0       0       0       0       0       0       
      +0       0       0       0       0       0
  2506 ;;      Locals:         0       0       0       0       0       0       0       0       0       0       0       0       
      +0       0       0       0       0       0       0       0       0       0       0       0       0       0       0       
      +0       0       0       0       0       0
  2507 ;;      Temps:          0       0       0       0       0       0       0       0       0       0       0       0       
      +0       0       0       0       0       0       0       0       0       0       0       0       0       0       0       
      +0       0       0       0       0       0
  2508 ;;      Totals:         3       0       0       0       0       0       0       0       0       0       0       0       
      +0       0       0       0       0       0       0       0       0       0       0       0       0       0       0       
      +0       0       0       0       0       0
  2509 ;;Total ram usage:        3 bytes
  2510 ;; Hardware stack levels used: 1
  2511 ;; Hardware stack levels required when called: 4
  2512 ;; This function calls:
  2513 ;;		Nothing
  2514 ;; This function is called by:
  2515 ;;		_INTERRUPT_Initialize
  2516 ;; This function uses a non-reentrant model
  2517 ;;
  2518                           
  2519                           	psect	text17
  2520   00310A                     __ptext17:
  2521                           	callstack 0
  2522   00310A                     _INT0_SetInterruptHandler:
  2523                           	callstack 120
  2524   00310A                     
  2525                           ;mcc_generated_files/system/src/interrupt.c: 124:     INT0_InterruptHandler = InterruptH
      +                          andler;
  2526   00310A  C504  F549         	movff	INT0_SetInterruptHandler@InterruptHandler,_INT0_InterruptHandler
  2527   00310E  C505  F54A         	movff	INT0_SetInterruptHandler@InterruptHandler+1,_INT0_InterruptHandler+1
  2528   003112  C506  F54B         	movff	INT0_SetInterruptHandler@InterruptHandler+2,_INT0_InterruptHandler+2
  2529   003116  0012               	return		;funcret
  2530   003118                     __end_of_INT0_SetInterruptHandler:
  2531                           	callstack 0
  2532                           
  2533 ;; *************** function _I2C1_Initialize *****************
  2534 ;; Defined at:
  2535 ;;		line 93 in file "mcc_generated_files/i2c_host/src/i2c1.c"
  2536 ;; Parameters:    Size  Location     Type
  2537 ;;		None
  2538 ;; Auto vars:     Size  Location     Type
  2539 ;;		None
  2540 ;; Return value:  Size  Location     Type
  2541 ;;                  1    wreg      void 
  2542 ;; Registers used:
  2543 ;;		wreg, status,2, status,0, cstack
  2544 ;; Tracked objects:
  2545 ;;		On entry : 0/0
  2546 ;;		On exit  : 0/0
  2547 ;;		Unchanged: 0/0
  2548 ;; Data sizes:     COMRAM   BANK5   BANK6   BANK7   BANK8   BANK9  BANK10  BANK11  BANK12  BANK13  BANK14  BANK15  BANK1
      +6  BANK17  BANK18  BANK19  BANK20  BANK21  BANK22  BANK23  BANK24  BANK25  BANK26  BANK27  BANK28  BANK29  BANK30  BANK3
      +1  BANK32  BANK33  BANK34  BANK35  BANK36
  2549 ;;      Params:         0       0       0       0       0       0       0       0       0       0       0       0       
      +0       0       0       0       0       0       0       0       0       0       0       0       0       0       0       
      +0       0       0       0       0       0
  2550 ;;      Locals:         0       0       0       0       0       0       0       0       0       0       0       0       
      +0       0       0       0       0       0       0       0       0       0       0       0       0       0       0       
      +0       0       0       0       0       0
  2551 ;;      Temps:          0       0       0       0       0       0       0       0       0       0       0       0       
      +0       0       0       0       0       0       0       0       0       0       0       0       0       0       0       
      +0       0       0       0       0       0
  2552 ;;      Totals:         0       0       0       0       0       0       0       0       0       0       0       0       
      +0       0       0       0       0       0       0       0       0       0       0       0       0       0       0       
      +0       0       0       0       0       0
  2553 ;;Total ram usage:        0 bytes
  2554 ;; Hardware stack levels used: 1
  2555 ;; Hardware stack levels required when called: 5
  2556 ;; This function calls:
  2557 ;;		_I2C1_CallbackRegister
  2558 ;;		_I2C1_InterruptsEnable
  2559 ;; This function is called by:
  2560 ;;		_SYSTEM_Initialize
  2561 ;; This function uses a non-reentrant model
  2562 ;;
  2563                           
  2564                           	psect	text18
  2565   002C62                     __ptext18:
  2566                           	callstack 0
  2567   002C62                     _I2C1_Initialize:
  2568                           	callstack 120
  2569   002C62                     
  2570                           ;mcc_generated_files/i2c_host/src/i2c1.c: 96:     I2C1CON0 = 0x4;
  2571   002C62  0E04               	movlw	4
  2572   002C64  0102               	movlb	2	; () banked
  2573   002C66  6F94               	movwf	148,b	;volatile
  2574                           
  2575                           ;mcc_generated_files/i2c_host/src/i2c1.c: 98:     I2C1CON1 = 0x80;
  2576   002C68  0E80               	movlw	128
  2577   002C6A  6F95               	movwf	149,b	;volatile
  2578                           
  2579                           ;mcc_generated_files/i2c_host/src/i2c1.c: 100:     I2C1CON2 = 0x8;
  2580   002C6C  0E08               	movlw	8
  2581   002C6E  6F96               	movwf	150,b	;volatile
  2582                           
  2583                           ;mcc_generated_files/i2c_host/src/i2c1.c: 102:     I2C1CLK = 0x3;
  2584   002C70  0E03               	movlw	3
  2585   002C72  6F9C               	movwf	156,b	;volatile
  2586                           
  2587                           ;mcc_generated_files/i2c_host/src/i2c1.c: 104:     I2C1PIR = 0x0;
  2588   002C74  0E00               	movlw	0
  2589   002C76  6F9A               	movwf	154,b	;volatile
  2590                           
  2591                           ;mcc_generated_files/i2c_host/src/i2c1.c: 106:     I2C1PIE = 0x0;
  2592   002C78  0E00               	movlw	0
  2593   002C7A  6F9B               	movwf	155,b	;volatile
  2594                           
  2595                           ;mcc_generated_files/i2c_host/src/i2c1.c: 108:     I2C1ERR = 0x0;
  2596   002C7C  0E00               	movlw	0
  2597   002C7E  6F97               	movwf	151,b	;volatile
  2598                           
  2599                           ;mcc_generated_files/i2c_host/src/i2c1.c: 110:     I2C1CNT = 0x0;
  2600   002C80  0E00               	movlw	0
  2601   002C82  6F8D               	movwf	141,b	;volatile
  2602                           
  2603                           ;mcc_generated_files/i2c_host/src/i2c1.c: 112:     RC3I2C = 0x51;
  2604   002C84  0E51               	movlw	81
  2605   002C86  6F87               	movwf	135,b	;volatile
  2606                           
  2607                           ;mcc_generated_files/i2c_host/src/i2c1.c: 114:     RC4I2C = 0x51;
  2608   002C88  0E51               	movlw	81
  2609   002C8A  6F86               	movwf	134,b	;volatile
  2610   002C8C                     
  2611                           ; BSR set to: 2
  2612                           ;mcc_generated_files/i2c_host/src/i2c1.c: 115:     I2C1_InterruptsEnable();
  2613   002C8C  EC45  F018         	call	_I2C1_InterruptsEnable	;wreg free
  2614   002C90                     
  2615                           ;mcc_generated_files/i2c_host/src/i2c1.c: 119:     I2C1PIEbits.SCIE = 0;
  2616   002C90  0102               	movlb	2	; () banked
  2617   002C92  919B               	bcf	155,0,b	;volatile
  2618   002C94                     
  2619                           ; BSR set to: 2
  2620                           ;mcc_generated_files/i2c_host/src/i2c1.c: 120:     I2C1PIEbits.PCIE = 0;
  2621   002C94  959B               	bcf	155,2,b	;volatile
  2622   002C96                     
  2623                           ; BSR set to: 2
  2624                           ;mcc_generated_files/i2c_host/src/i2c1.c: 121:     I2C1CON0bits.EN = 1;
  2625   002C96  8F94               	bsf	148,7,b	;volatile
  2626   002C98                     
  2627                           ; BSR set to: 2
  2628                           ;mcc_generated_files/i2c_host/src/i2c1.c: 122:     _delay((unsigned long)((1)*(64000000/
      +                          4000000.0)));
  2629   002C98  0E05               	movlw	5
  2630   002C9A                     u1317:
  2631   002C9A  2EE8               	decfsz	wreg,f,c
  2632   002C9C  D7FE               	bra	u1317
  2633   002C9E  0000               	nop	
  2634   002CA0                     
  2635                           ;mcc_generated_files/i2c_host/src/i2c1.c: 123:     __nop();
  2636   002CA0  0000               	nop	
  2637   002CA2                     
  2638                           ;mcc_generated_files/i2c_host/src/i2c1.c: 124:     __nop();
  2639   002CA2  0000               	nop	
  2640   002CA4                     
  2641                           ;mcc_generated_files/i2c_host/src/i2c1.c: 125:     __nop();
  2642   002CA4  0000               	nop	
  2643   002CA6                     
  2644                           ;mcc_generated_files/i2c_host/src/i2c1.c: 126:     __nop();
  2645   002CA6  0000               	nop	
  2646   002CA8                     
  2647                           ;mcc_generated_files/i2c_host/src/i2c1.c: 127:     __nop();
  2648   002CA8  0000               	nop	
  2649   002CAA                     
  2650                           ;mcc_generated_files/i2c_host/src/i2c1.c: 128:     __nop();
  2651   002CAA  0000               	nop	
  2652   002CAC                     
  2653                           ;mcc_generated_files/i2c_host/src/i2c1.c: 129:     I2C1PIRbits.SCIF = 0;
  2654   002CAC  0102               	movlb	2	; () banked
  2655   002CAE  919A               	bcf	154,0,b	;volatile
  2656   002CB0                     
  2657                           ; BSR set to: 2
  2658                           ;mcc_generated_files/i2c_host/src/i2c1.c: 130:     I2C1PIRbits.PCIF = 0;
  2659   002CB0  959A               	bcf	154,2,b	;volatile
  2660   002CB2                     
  2661                           ; BSR set to: 2
  2662                           ;mcc_generated_files/i2c_host/src/i2c1.c: 131:     I2C1PIEbits.PCIE = 1;
  2663   002CB2  859B               	bsf	155,2,b	;volatile
  2664   002CB4                     
  2665                           ; BSR set to: 2
  2666                           ;mcc_generated_files/i2c_host/src/i2c1.c: 132:     I2C1_CallbackRegister(I2C1_DefaultCal
      +                          lback);
  2667   002CB4  0E88               	movlw	low _I2C1_DefaultCallback
  2668   002CB6  6E04               	movwf	I2C1_CallbackRegister@callbackHandler^(0+1280),c
  2669   002CB8  0E31               	movlw	high _I2C1_DefaultCallback
  2670   002CBA  6E05               	movwf	(I2C1_CallbackRegister@callbackHandler+1)^(0+1280),c
  2671   002CBC  0E00               	movlw	low (_I2C1_DefaultCallback shr (0+16))
  2672   002CBE  6E06               	movwf	(I2C1_CallbackRegister@callbackHandler+2)^(0+1280),c
  2673   002CC0  ECD5  F017         	call	_I2C1_CallbackRegister	;wreg free
  2674   002CC4  0012               	return		;funcret
  2675   002CC6                     __end_of_I2C1_Initialize:
  2676                           	callstack 0
  2677                           
  2678 ;; *************** function _I2C1_InterruptsEnable *****************
  2679 ;; Defined at:
  2680 ;;		line 450 in file "mcc_generated_files/i2c_host/src/i2c1.c"
  2681 ;; Parameters:    Size  Location     Type
  2682 ;;		None
  2683 ;; Auto vars:     Size  Location     Type
  2684 ;;		None
  2685 ;; Return value:  Size  Location     Type
  2686 ;;                  1    wreg      void 
  2687 ;; Registers used:
  2688 ;;		None
  2689 ;; Tracked objects:
  2690 ;;		On entry : 0/0
  2691 ;;		On exit  : 0/0
  2692 ;;		Unchanged: 0/0
  2693 ;; Data sizes:     COMRAM   BANK5   BANK6   BANK7   BANK8   BANK9  BANK10  BANK11  BANK12  BANK13  BANK14  BANK15  BANK1
      +6  BANK17  BANK18  BANK19  BANK20  BANK21  BANK22  BANK23  BANK24  BANK25  BANK26  BANK27  BANK28  BANK29  BANK30  BANK3
      +1  BANK32  BANK33  BANK34  BANK35  BANK36
  2694 ;;      Params:         0       0       0       0       0       0       0       0       0       0       0       0       
      +0       0       0       0       0       0       0       0       0       0       0       0       0       0       0       
      +0       0       0       0       0       0
  2695 ;;      Locals:         0       0       0       0       0       0       0       0       0       0       0       0       
      +0       0       0       0       0       0       0       0       0       0       0       0       0       0       0       
      +0       0       0       0       0       0
  2696 ;;      Temps:          0       0       0       0       0       0       0       0       0       0       0       0       
      +0       0       0       0       0       0       0       0       0       0       0       0       0       0       0       
      +0       0       0       0       0       0
  2697 ;;      Totals:         0       0       0       0       0       0       0       0       0       0       0       0       
      +0       0       0       0       0       0       0       0       0       0       0       0       0       0       0       
      +0       0       0       0       0       0
  2698 ;;Total ram usage:        0 bytes
  2699 ;; Hardware stack levels used: 1
  2700 ;; Hardware stack levels required when called: 4
  2701 ;; This function calls:
  2702 ;;		Nothing
  2703 ;; This function is called by:
  2704 ;;		_I2C1_Initialize
  2705 ;; This function uses a non-reentrant model
  2706 ;;
  2707                           
  2708                           	psect	text19
  2709   00308A                     __ptext19:
  2710                           	callstack 0
  2711   00308A                     _I2C1_InterruptsEnable:
  2712                           	callstack 120
  2713   00308A                     
  2714                           ;mcc_generated_files/i2c_host/src/i2c1.c: 452:     PIE7bits.I2C1IE = 1;
  2715   00308A  84A5               	bsf	165,2,c	;volatile
  2716                           
  2717                           ;mcc_generated_files/i2c_host/src/i2c1.c: 453:     PIE7bits.I2C1EIE = 1;
  2718   00308C  86A5               	bsf	165,3,c	;volatile
  2719                           
  2720                           ;mcc_generated_files/i2c_host/src/i2c1.c: 454:     PIE7bits.I2C1RXIE = 1;
  2721   00308E  80A5               	bsf	165,0,c	;volatile
  2722                           
  2723                           ;mcc_generated_files/i2c_host/src/i2c1.c: 455:     PIE7bits.I2C1TXIE = 1;
  2724   003090  82A5               	bsf	165,1,c	;volatile
  2725                           
  2726                           ;mcc_generated_files/i2c_host/src/i2c1.c: 457:     I2C1PIEbits.PCIE = 1;
  2727   003092  0102               	movlb	2	; () banked
  2728   003094  859B               	bsf	155,2,b	;volatile
  2729                           
  2730                           ;mcc_generated_files/i2c_host/src/i2c1.c: 458:     I2C1PIEbits.RSCIE = 1;
  2731   003096  839B               	bsf	155,1,b	;volatile
  2732                           
  2733                           ;mcc_generated_files/i2c_host/src/i2c1.c: 459:     I2C1PIEbits.CNTIE = 1;
  2734   003098  8F9B               	bsf	155,7,b	;volatile
  2735                           
  2736                           ;mcc_generated_files/i2c_host/src/i2c1.c: 460:     I2C1ERRbits.NACKIE = 1;
  2737   00309A  8197               	bsf	151,0,b	;volatile
  2738   00309C                     
  2739                           ; BSR set to: 2
  2740   00309C  0012               	return		;funcret
  2741   00309E                     __end_of_I2C1_InterruptsEnable:
  2742                           	callstack 0
  2743                           
  2744 ;; *************** function _I2C1_CallbackRegister *****************
  2745 ;; Defined at:
  2746 ;;		line 218 in file "mcc_generated_files/i2c_host/src/i2c1.c"
  2747 ;; Parameters:    Size  Location     Type
  2748 ;;  callbackHand    3    3[COMRAM] PTR FTN()void 
  2749 ;;		 -> I2C1_DefaultCallback(1), 
  2750 ;; Auto vars:     Size  Location     Type
  2751 ;;		None
  2752 ;; Return value:  Size  Location     Type
  2753 ;;                  1    wreg      void 
  2754 ;; Registers used:
  2755 ;;		wreg, status,2, status,0
  2756 ;; Tracked objects:
  2757 ;;		On entry : 0/0
  2758 ;;		On exit  : 0/0
  2759 ;;		Unchanged: 0/0
  2760 ;; Data sizes:     COMRAM   BANK5   BANK6   BANK7   BANK8   BANK9  BANK10  BANK11  BANK12  BANK13  BANK14  BANK15  BANK1
      +6  BANK17  BANK18  BANK19  BANK20  BANK21  BANK22  BANK23  BANK24  BANK25  BANK26  BANK27  BANK28  BANK29  BANK30  BANK3
      +1  BANK32  BANK33  BANK34  BANK35  BANK36
  2761 ;;      Params:         3       0       0       0       0       0       0       0       0       0       0       0       
      +0       0       0       0       0       0       0       0       0       0       0       0       0       0       0       
      +0       0       0       0       0       0
  2762 ;;      Locals:         0       0       0       0       0       0       0       0       0       0       0       0       
      +0       0       0       0       0       0       0       0       0       0       0       0       0       0       0       
      +0       0       0       0       0       0
  2763 ;;      Temps:          0       0       0       0       0       0       0       0       0       0       0       0       
      +0       0       0       0       0       0       0       0       0       0       0       0       0       0       0       
      +0       0       0       0       0       0
  2764 ;;      Totals:         3       0       0       0       0       0       0       0       0       0       0       0       
      +0       0       0       0       0       0       0       0       0       0       0       0       0       0       0       
      +0       0       0       0       0       0
  2765 ;;Total ram usage:        3 bytes
  2766 ;; Hardware stack levels used: 1
  2767 ;; Hardware stack levels required when called: 4
  2768 ;; This function calls:
  2769 ;;		Nothing
  2770 ;; This function is called by:
  2771 ;;		_I2C1_Initialize
  2772 ;;		_I2C1_Deinitialize
  2773 ;; This function uses a non-reentrant model
  2774 ;;
  2775                           
  2776                           	psect	text20
  2777   002FAA                     __ptext20:
  2778                           	callstack 0
  2779   002FAA                     _I2C1_CallbackRegister:
  2780                           	callstack 120
  2781   002FAA                     
  2782                           ;mcc_generated_files/i2c_host/src/i2c1.c: 218: void I2C1_CallbackRegister(void (*callbac
      +                          kHandler)(void));mcc_generated_files/i2c_host/src/i2c1.c: 219: {;mcc_generated_files/i2c
      +                          _host/src/i2c1.c: 220:     if (callbackHandler != ((void*)0))
  2783   002FAA  5004               	movf	I2C1_CallbackRegister@callbackHandler^(0+1280),w,c
  2784   002FAC  1005               	iorwf	(I2C1_CallbackRegister@callbackHandler+1)^(0+1280),w,c
  2785   002FAE  1006               	iorwf	(I2C1_CallbackRegister@callbackHandler+2)^(0+1280),w,c
  2786   002FB0  B4D8               	btfsc	status,2,c
  2787   002FB2  EFDD  F017         	goto	u841
  2788   002FB6  EFDF  F017         	goto	u840
  2789   002FBA                     u841:
  2790   002FBA  EFE5  F017         	goto	l146
  2791   002FBE                     u840:
  2792   002FBE                     
  2793                           ;mcc_generated_files/i2c_host/src/i2c1.c: 221:     {;mcc_generated_files/i2c_host/src/i2
      +                          c1.c: 222:         I2C1_Callback = callbackHandler;
  2794   002FBE  C504  F54C         	movff	I2C1_CallbackRegister@callbackHandler,_I2C1_Callback
  2795   002FC2  C505  F54D         	movff	I2C1_CallbackRegister@callbackHandler+1,_I2C1_Callback+1
  2796   002FC6  C506  F54E         	movff	I2C1_CallbackRegister@callbackHandler+2,_I2C1_Callback+2
  2797   002FCA                     l146:
  2798   002FCA  0012               	return		;funcret
  2799   002FCC                     __end_of_I2C1_CallbackRegister:
  2800                           	callstack 0
  2801                           
  2802 ;; *************** function _CLOCK_Initialize *****************
  2803 ;; Defined at:
  2804 ;;		line 37 in file "mcc_generated_files/system/src/clock.c"
  2805 ;; Parameters:    Size  Location     Type
  2806 ;;		None
  2807 ;; Auto vars:     Size  Location     Type
  2808 ;;		None
  2809 ;; Return value:  Size  Location     Type
  2810 ;;                  1    wreg      void 
  2811 ;; Registers used:
  2812 ;;		wreg, status,2
  2813 ;; Tracked objects:
  2814 ;;		On entry : 0/0
  2815 ;;		On exit  : 0/0
  2816 ;;		Unchanged: 0/0
  2817 ;; Data sizes:     COMRAM   BANK5   BANK6   BANK7   BANK8   BANK9  BANK10  BANK11  BANK12  BANK13  BANK14  BANK15  BANK1
      +6  BANK17  BANK18  BANK19  BANK20  BANK21  BANK22  BANK23  BANK24  BANK25  BANK26  BANK27  BANK28  BANK29  BANK30  BANK3
      +1  BANK32  BANK33  BANK34  BANK35  BANK36
  2818 ;;      Params:         0       0       0       0       0       0       0       0       0       0       0       0       
      +0       0       0       0       0       0       0       0       0       0       0       0       0       0       0       
      +0       0       0       0       0       0
  2819 ;;      Locals:         0       0       0       0       0       0       0       0       0       0       0       0       
      +0       0       0       0       0       0       0       0       0       0       0       0       0       0       0       
      +0       0       0       0       0       0
  2820 ;;      Temps:          0       0       0       0       0       0       0       0       0       0       0       0       
      +0       0       0       0       0       0       0       0       0       0       0       0       0       0       0       
      +0       0       0       0       0       0
  2821 ;;      Totals:         0       0       0       0       0       0       0       0       0       0       0       0       
      +0       0       0       0       0       0       0       0       0       0       0       0       0       0       0       
      +0       0       0       0       0       0
  2822 ;;Total ram usage:        0 bytes
  2823 ;; Hardware stack levels used: 1
  2824 ;; Hardware stack levels required when called: 4
  2825 ;; This function calls:
  2826 ;;		Nothing
  2827 ;; This function is called by:
  2828 ;;		_SYSTEM_Initialize
  2829 ;; This function uses a non-reentrant model
  2830 ;;
  2831                           
  2832                           	psect	text21
  2833   002FEA                     __ptext21:
  2834                           	callstack 0
  2835   002FEA                     _CLOCK_Initialize:
  2836                           	callstack 121
  2837   002FEA                     
  2838                           ;mcc_generated_files/system/src/clock.c: 41:     OSCCON1 = 0x60;
  2839   002FEA  0E60               	movlw	96
  2840   002FEC  0100               	movlb	0	; () banked
  2841   002FEE  6FAD               	movwf	173,b	;volatile
  2842                           
  2843                           ;mcc_generated_files/system/src/clock.c: 43:     OSCCON3 = 0x0;
  2844   002FF0  0E00               	movlw	0
  2845   002FF2  6FAF               	movwf	175,b	;volatile
  2846                           
  2847                           ;mcc_generated_files/system/src/clock.c: 45:     OSCEN = 0x0;
  2848   002FF4  0E00               	movlw	0
  2849   002FF6  6FB3               	movwf	179,b	;volatile
  2850                           
  2851                           ;mcc_generated_files/system/src/clock.c: 47:     OSCFRQ = 0x8;
  2852   002FF8  0E08               	movlw	8
  2853   002FFA  6FB1               	movwf	177,b	;volatile
  2854                           
  2855                           ;mcc_generated_files/system/src/clock.c: 49:     OSCTUNE = 0x0;
  2856   002FFC  0E00               	movlw	0
  2857   002FFE  6FB0               	movwf	176,b	;volatile
  2858                           
  2859                           ;mcc_generated_files/system/src/clock.c: 51:     ACTCON = 0x0;
  2860   003000  0E00               	movlw	0
  2861   003002  6FAC               	movwf	172,b	;volatile
  2862   003004                     
  2863                           ; BSR set to: 0
  2864   003004  0012               	return		;funcret
  2865   003006                     __end_of_CLOCK_Initialize:
  2866                           	callstack 0
  2867                           
  2868 ;; *************** function _I2C1_Write *****************
  2869 ;; Defined at:
  2870 ;;		line 149 in file "mcc_generated_files/i2c_host/src/i2c1.c"
  2871 ;; Parameters:    Size  Location     Type
  2872 ;;  address         2    4[COMRAM] unsigned short 
  2873 ;;  data            2    6[COMRAM] PTR unsigned char 
  2874 ;;		 -> RAM(9471), 
  2875 ;;  dataLength      2    8[COMRAM] unsigned int 
  2876 ;; Auto vars:     Size  Location     Type
  2877 ;;  retStatus       1    0        _Bool 
  2878 ;; Return value:  Size  Location     Type
  2879 ;;                  1    wreg      _Bool 
  2880 ;; Registers used:
  2881 ;;		wreg, status,2, status,0, cstack
  2882 ;; Tracked objects:
  2883 ;;		On entry : 0/0
  2884 ;;		On exit  : 0/0
  2885 ;;		Unchanged: 0/0
  2886 ;; Data sizes:     COMRAM   BANK5   BANK6   BANK7   BANK8   BANK9  BANK10  BANK11  BANK12  BANK13  BANK14  BANK15  BANK1
      +6  BANK17  BANK18  BANK19  BANK20  BANK21  BANK22  BANK23  BANK24  BANK25  BANK26  BANK27  BANK28  BANK29  BANK30  BANK3
      +1  BANK32  BANK33  BANK34  BANK35  BANK36
  2887 ;;      Params:         6       0       0       0       0       0       0       0       0       0       0       0       
      +0       0       0       0       0       0       0       0       0       0       0       0       0       0       0       
      +0       0       0       0       0       0
  2888 ;;      Locals:         0       0       0       0       0       0       0       0       0       0       0       0       
      +0       0       0       0       0       0       0       0       0       0       0       0       0       0       0       
      +0       0       0       0       0       0
  2889 ;;      Temps:          0       0       0       0       0       0       0       0       0       0       0       0       
      +0       0       0       0       0       0       0       0       0       0       0       0       0       0       0       
      +0       0       0       0       0       0
  2890 ;;      Totals:         6       0       0       0       0       0       0       0       0       0       0       0       
      +0       0       0       0       0       0       0       0       0       0       0       0       0       0       0       
      +0       0       0       0       0       0
  2891 ;;Total ram usage:        6 bytes
  2892 ;; Hardware stack levels used: 1
  2893 ;; Hardware stack levels required when called: 6
  2894 ;; This function calls:
  2895 ;;		_I2C1_IsBusy
  2896 ;;		_I2C1_WriteStart
  2897 ;; This function is called by:
  2898 ;;		_main
  2899 ;; This function uses a non-reentrant model
  2900 ;;
  2901                           
  2902                           	psect	text22
  2903   002D14                     __ptext22:
  2904                           	callstack 0
  2905   002D14                     _I2C1_Write:
  2906                           	callstack 120
  2907   002D14                     
  2908                           ;mcc_generated_files/i2c_host/src/i2c1.c: 152:     if (!I2C1_IsBusy())
  2909   002D14  EC2C  F017         	call	_I2C1_IsBusy	;wreg free
  2910   002D18  0900               	iorlw	0
  2911   002D1A  A4D8               	btfss	status,2,c
  2912   002D1C  EF92  F016         	goto	u991
  2913   002D20  EF94  F016         	goto	u990
  2914   002D24                     u991:
  2915   002D24  EFB0  F016         	goto	l126
  2916   002D28                     u990:
  2917   002D28                     
  2918                           ;mcc_generated_files/i2c_host/src/i2c1.c: 153:     {;mcc_generated_files/i2c_host/src/i2
      +                          c1.c: 154:         i2c1Status.busy = 1;
  2919   002D28  0E01               	movlw	1
  2920   002D2A  6E2D               	movwf	_i2c1Status^(0+1280),c	;volatile
  2921   002D2C                     
  2922                           ;mcc_generated_files/i2c_host/src/i2c1.c: 155:         i2c1Status.address = address;
  2923   002D2C  C505  F52E         	movff	I2C1_Write@address,_i2c1Status+1	;volatile
  2924   002D30  C506  F52F         	movff	I2C1_Write@address+1,_i2c1Status+2	;volatile
  2925                           
  2926                           ;mcc_generated_files/i2c_host/src/i2c1.c: 156:         i2c1Status.switchToRead = 0;
  2927   002D34  0E00               	movlw	0
  2928   002D36  6E38               	movwf	(_i2c1Status+11)^(0+1280),c	;volatile
  2929   002D38                     
  2930                           ;mcc_generated_files/i2c_host/src/i2c1.c: 157:         i2c1Status.writePtr = data;
  2931   002D38  C507  F530         	movff	I2C1_Write@data,_i2c1Status+3	;volatile
  2932   002D3C  C508  F531         	movff	I2C1_Write@data+1,_i2c1Status+4	;volatile
  2933   002D40                     
  2934                           ;mcc_generated_files/i2c_host/src/i2c1.c: 158:         i2c1Status.writeLength = dataLeng
      +                          th;
  2935   002D40  C509  F532         	movff	I2C1_Write@dataLength,_i2c1Status+5	;volatile
  2936   002D44  C50A  F533         	movff	I2C1_Write@dataLength+1,_i2c1Status+6	;volatile
  2937   002D48                     
  2938                           ;mcc_generated_files/i2c_host/src/i2c1.c: 159:         i2c1Status.readPtr = ((void*)0);
  2939   002D48  0E00               	movlw	0
  2940   002D4A  6E34               	movwf	(_i2c1Status+7)^(0+1280),c	;volatile
  2941   002D4C  0E00               	movlw	0
  2942   002D4E  6E35               	movwf	(_i2c1Status+8)^(0+1280),c	;volatile
  2943                           
  2944                           ;mcc_generated_files/i2c_host/src/i2c1.c: 160:         i2c1Status.readLength = 0;
  2945   002D50  0E00               	movlw	0
  2946   002D52  6E37               	movwf	(_i2c1Status+10)^(0+1280),c	;volatile
  2947   002D54  0E00               	movlw	0
  2948   002D56  6E36               	movwf	(_i2c1Status+9)^(0+1280),c	;volatile
  2949                           
  2950                           ;mcc_generated_files/i2c_host/src/i2c1.c: 161:         i2c1Status.errorState = I2C_ERROR
      +                          _NONE;
  2951   002D58  0E00               	movlw	0
  2952   002D5A  6E39               	movwf	(_i2c1Status+12)^(0+1280),c	;volatile
  2953   002D5C                     
  2954                           ;mcc_generated_files/i2c_host/src/i2c1.c: 162:         I2C1_WriteStart();
  2955   002D5C  EC0F  F017         	call	_I2C1_WriteStart	;wreg free
  2956   002D60                     l126:
  2957   002D60  0012               	return		;funcret
  2958   002D62                     __end_of_I2C1_Write:
  2959                           	callstack 0
  2960                           
  2961 ;; *************** function _I2C1_WriteStart *****************
  2962 ;; Defined at:
  2963 ;;		line 315 in file "mcc_generated_files/i2c_host/src/i2c1.c"
  2964 ;; Parameters:    Size  Location     Type
  2965 ;;		None
  2966 ;; Auto vars:     Size  Location     Type
  2967 ;;		None
  2968 ;; Return value:  Size  Location     Type
  2969 ;;                  1    wreg      void 
  2970 ;; Registers used:
  2971 ;;		wreg, status,2, status,0, cstack
  2972 ;; Tracked objects:
  2973 ;;		On entry : 0/0
  2974 ;;		On exit  : 0/0
  2975 ;;		Unchanged: 0/0
  2976 ;; Data sizes:     COMRAM   BANK5   BANK6   BANK7   BANK8   BANK9  BANK10  BANK11  BANK12  BANK13  BANK14  BANK15  BANK1
      +6  BANK17  BANK18  BANK19  BANK20  BANK21  BANK22  BANK23  BANK24  BANK25  BANK26  BANK27  BANK28  BANK29  BANK30  BANK3
      +1  BANK32  BANK33  BANK34  BANK35  BANK36
  2977 ;;      Params:         0       0       0       0       0       0       0       0       0       0       0       0       
      +0       0       0       0       0       0       0       0       0       0       0       0       0       0       0       
      +0       0       0       0       0       0
  2978 ;;      Locals:         0       0       0       0       0       0       0       0       0       0       0       0       
      +0       0       0       0       0       0       0       0       0       0       0       0       0       0       0       
      +0       0       0       0       0       0
  2979 ;;      Temps:          0       0       0       0       0       0       0       0       0       0       0       0       
      +0       0       0       0       0       0       0       0       0       0       0       0       0       0       0       
      +0       0       0       0       0       0
  2980 ;;      Totals:         0       0       0       0       0       0       0       0       0       0       0       0       
      +0       0       0       0       0       0       0       0       0       0       0       0       0       0       0       
      +0       0       0       0       0       0
  2981 ;;Total ram usage:        0 bytes
  2982 ;; Hardware stack levels used: 1
  2983 ;; Hardware stack levels required when called: 5
  2984 ;; This function calls:
  2985 ;;		_I2C1_AddrTransmit
  2986 ;;		_I2C1_CounterSet
  2987 ;;		_I2C1_RestartEnable
  2988 ;;		_I2C1_StartSend
  2989 ;; This function is called by:
  2990 ;;		_I2C1_Write
  2991 ;;		_I2C1_WriteRead
  2992 ;; This function uses a non-reentrant model
  2993 ;;
  2994                           
  2995                           	psect	text23
  2996   002E1E                     __ptext23:
  2997                           	callstack 0
  2998   002E1E                     _I2C1_WriteStart:
  2999                           	callstack 120
  3000   002E1E                     
  3001                           ;mcc_generated_files/i2c_host/src/i2c1.c: 317:     if (i2c1Status.writeLength)
  3002   002E1E  5032               	movf	(_i2c1Status+5)^(0+1280),w,c	;volatile
  3003   002E20  1033               	iorwf	(_i2c1Status+6)^(0+1280),w,c	;volatile
  3004   002E22  B4D8               	btfsc	status,2,c
  3005   002E24  EF16  F017         	goto	u201
  3006   002E28  EF18  F017         	goto	u200
  3007   002E2C                     u201:
  3008   002E2C  EF25  F017         	goto	l1675
  3009   002E30                     u200:
  3010   002E30                     
  3011                           ;mcc_generated_files/i2c_host/src/i2c1.c: 318:     {;mcc_generated_files/i2c_host/src/i2
      +                          c1.c: 319:         I2C1_CounterSet((uint8_t) i2c1Status.writeLength);
  3012   002E30  5032               	movf	(_i2c1Status+5)^(0+1280),w,c	;volatile
  3013   002E32  EC9A  F018         	call	_I2C1_CounterSet
  3014   002E36                     
  3015                           ;mcc_generated_files/i2c_host/src/i2c1.c: 320:         if (i2c1Status.switchToRead)
  3016   002E36  5038               	movf	(_i2c1Status+11)^(0+1280),w,c	;volatile
  3017   002E38  B4D8               	btfsc	status,2,c
  3018   002E3A  EF21  F017         	goto	u211
  3019   002E3E  EF23  F017         	goto	u210
  3020   002E42                     u211:
  3021   002E42  EF25  F017         	goto	l1675
  3022   002E46                     u210:
  3023   002E46                     
  3024                           ;mcc_generated_files/i2c_host/src/i2c1.c: 321:         {;mcc_generated_files/i2c_host/sr
      +                          c/i2c1.c: 322:             I2C1_RestartEnable();
  3025   002E46  ECB5  F018         	call	_I2C1_RestartEnable	;wreg free
  3026   002E4A                     l1675:
  3027                           
  3028                           ;mcc_generated_files/i2c_host/src/i2c1.c: 326:     I2C1_AddrTransmit((uint8_t) (i2c1Stat
      +                          us.address << 1));
  3029   002E4A  502E               	movf	(_i2c1Status+1)^(0+1280),w,c	;volatile
  3030   002E4C  242E               	addwf	(_i2c1Status+1)^(0+1280),w,c	;volatile
  3031   002E4E  EC9E  F018         	call	_I2C1_AddrTransmit
  3032   002E52                     
  3033                           ;mcc_generated_files/i2c_host/src/i2c1.c: 327:     I2C1_StartSend();
  3034   002E52  ECB2  F018         	call	_I2C1_StartSend	;wreg free
  3035   002E56  0012               	return		;funcret
  3036   002E58                     __end_of_I2C1_WriteStart:
  3037                           	callstack 0
  3038                           
  3039 ;; *************** function _I2C1_StartSend *****************
  3040 ;; Defined at:
  3041 ;;		line 349 in file "mcc_generated_files/i2c_host/src/i2c1.c"
  3042 ;; Parameters:    Size  Location     Type
  3043 ;;		None
  3044 ;; Auto vars:     Size  Location     Type
  3045 ;;		None
  3046 ;; Return value:  Size  Location     Type
  3047 ;;                  1    wreg      void 
  3048 ;; Registers used:
  3049 ;;		None
  3050 ;; Tracked objects:
  3051 ;;		On entry : 0/0
  3052 ;;		On exit  : 0/0
  3053 ;;		Unchanged: 0/0
  3054 ;; Data sizes:     COMRAM   BANK5   BANK6   BANK7   BANK8   BANK9  BANK10  BANK11  BANK12  BANK13  BANK14  BANK15  BANK1
      +6  BANK17  BANK18  BANK19  BANK20  BANK21  BANK22  BANK23  BANK24  BANK25  BANK26  BANK27  BANK28  BANK29  BANK30  BANK3
      +1  BANK32  BANK33  BANK34  BANK35  BANK36
  3055 ;;      Params:         0       0       0       0       0       0       0       0       0       0       0       0       
      +0       0       0       0       0       0       0       0       0       0       0       0       0       0       0       
      +0       0       0       0       0       0
  3056 ;;      Locals:         0       0       0       0       0       0       0       0       0       0       0       0       
      +0       0       0       0       0       0       0       0       0       0       0       0       0       0       0       
      +0       0       0       0       0       0
  3057 ;;      Temps:          0       0       0       0       0       0       0       0       0       0       0       0       
      +0       0       0       0       0       0       0       0       0       0       0       0       0       0       0       
      +0       0       0       0       0       0
  3058 ;;      Totals:         0       0       0       0       0       0       0       0       0       0       0       0       
      +0       0       0       0       0       0       0       0       0       0       0       0       0       0       0       
      +0       0       0       0       0       0
  3059 ;;Total ram usage:        0 bytes
  3060 ;; Hardware stack levels used: 1
  3061 ;; Hardware stack levels required when called: 4
  3062 ;; This function calls:
  3063 ;;		Nothing
  3064 ;; This function is called by:
  3065 ;;		_I2C1_WriteStart
  3066 ;; This function uses a non-reentrant model
  3067 ;;
  3068                           
  3069                           	psect	text24
  3070   003164                     __ptext24:
  3071                           	callstack 0
  3072   003164                     _I2C1_StartSend:
  3073                           	callstack 120
  3074   003164                     
  3075                           ;mcc_generated_files/i2c_host/src/i2c1.c: 351:     I2C1CON0bits.S = 1;
  3076   003164  0102               	movlb	2	; () banked
  3077   003166  8B94               	bsf	148,5,b	;volatile
  3078   003168                     
  3079                           ; BSR set to: 2
  3080   003168  0012               	return		;funcret
  3081   00316A                     __end_of_I2C1_StartSend:
  3082                           	callstack 0
  3083                           
  3084 ;; *************** function _I2C1_RestartEnable *****************
  3085 ;; Defined at:
  3086 ;;		line 405 in file "mcc_generated_files/i2c_host/src/i2c1.c"
  3087 ;; Parameters:    Size  Location     Type
  3088 ;;		None
  3089 ;; Auto vars:     Size  Location     Type
  3090 ;;		None
  3091 ;; Return value:  Size  Location     Type
  3092 ;;                  1    wreg      void 
  3093 ;; Registers used:
  3094 ;;		None
  3095 ;; Tracked objects:
  3096 ;;		On entry : 0/0
  3097 ;;		On exit  : 0/0
  3098 ;;		Unchanged: 0/0
  3099 ;; Data sizes:     COMRAM   BANK5   BANK6   BANK7   BANK8   BANK9  BANK10  BANK11  BANK12  BANK13  BANK14  BANK15  BANK1
      +6  BANK17  BANK18  BANK19  BANK20  BANK21  BANK22  BANK23  BANK24  BANK25  BANK26  BANK27  BANK28  BANK29  BANK30  BANK3
      +1  BANK32  BANK33  BANK34  BANK35  BANK36
  3100 ;;      Params:         0       0       0       0       0       0       0       0       0       0       0       0       
      +0       0       0       0       0       0       0       0       0       0       0       0       0       0       0       
      +0       0       0       0       0       0
  3101 ;;      Locals:         0       0       0       0       0       0       0       0       0       0       0       0       
      +0       0       0       0       0       0       0       0       0       0       0       0       0       0       0       
      +0       0       0       0       0       0
  3102 ;;      Temps:          0       0       0       0       0       0       0       0       0       0       0       0       
      +0       0       0       0       0       0       0       0       0       0       0       0       0       0       0       
      +0       0       0       0       0       0
  3103 ;;      Totals:         0       0       0       0       0       0       0       0       0       0       0       0       
      +0       0       0       0       0       0       0       0       0       0       0       0       0       0       0       
      +0       0       0       0       0       0
  3104 ;;Total ram usage:        0 bytes
  3105 ;; Hardware stack levels used: 1
  3106 ;; Hardware stack levels required when called: 4
  3107 ;; This function calls:
  3108 ;;		Nothing
  3109 ;; This function is called by:
  3110 ;;		_I2C1_WriteStart
  3111 ;; This function uses a non-reentrant model
  3112 ;;
  3113                           
  3114                           	psect	text25
  3115   00316A                     __ptext25:
  3116                           	callstack 0
  3117   00316A                     _I2C1_RestartEnable:
  3118                           	callstack 120
  3119   00316A                     
  3120                           ;mcc_generated_files/i2c_host/src/i2c1.c: 407:     I2C1CON0bits.RSEN = 1;
  3121   00316A  0102               	movlb	2	; () banked
  3122   00316C  8D94               	bsf	148,6,b	;volatile
  3123   00316E                     
  3124                           ; BSR set to: 2
  3125   00316E  0012               	return		;funcret
  3126   003170                     __end_of_I2C1_RestartEnable:
  3127                           	callstack 0
  3128                           
  3129 ;; *************** function _I2C1_CounterSet *****************
  3130 ;; Defined at:
  3131 ;;		line 369 in file "mcc_generated_files/i2c_host/src/i2c1.c"
  3132 ;; Parameters:    Size  Location     Type
  3133 ;;  counter         1    wreg     unsigned char 
  3134 ;; Auto vars:     Size  Location     Type
  3135 ;;  counter         1    3[COMRAM] unsigned char 
  3136 ;; Return value:  Size  Location     Type
  3137 ;;                  1    wreg      void 
  3138 ;; Registers used:
  3139 ;;		wreg
  3140 ;; Tracked objects:
  3141 ;;		On entry : 0/0
  3142 ;;		On exit  : 0/0
  3143 ;;		Unchanged: 0/0
  3144 ;; Data sizes:     COMRAM   BANK5   BANK6   BANK7   BANK8   BANK9  BANK10  BANK11  BANK12  BANK13  BANK14  BANK15  BANK1
      +6  BANK17  BANK18  BANK19  BANK20  BANK21  BANK22  BANK23  BANK24  BANK25  BANK26  BANK27  BANK28  BANK29  BANK30  BANK3
      +1  BANK32  BANK33  BANK34  BANK35  BANK36
  3145 ;;      Params:         0       0       0       0       0       0       0       0       0       0       0       0       
      +0       0       0       0       0       0       0       0       0       0       0       0       0       0       0       
      +0       0       0       0       0       0
  3146 ;;      Locals:         1       0       0       0       0       0       0       0       0       0       0       0       
      +0       0       0       0       0       0       0       0       0       0       0       0       0       0       0       
      +0       0       0       0       0       0
  3147 ;;      Temps:          0       0       0       0       0       0       0       0       0       0       0       0       
      +0       0       0       0       0       0       0       0       0       0       0       0       0       0       0       
      +0       0       0       0       0       0
  3148 ;;      Totals:         1       0       0       0       0       0       0       0       0       0       0       0       
      +0       0       0       0       0       0       0       0       0       0       0       0       0       0       0       
      +0       0       0       0       0       0
  3149 ;;Total ram usage:        1 bytes
  3150 ;; Hardware stack levels used: 1
  3151 ;; Hardware stack levels required when called: 4
  3152 ;; This function calls:
  3153 ;;		Nothing
  3154 ;; This function is called by:
  3155 ;;		_I2C1_WriteStart
  3156 ;; This function uses a non-reentrant model
  3157 ;;
  3158                           
  3159                           	psect	text26
  3160   003134                     __ptext26:
  3161                           	callstack 0
  3162   003134                     _I2C1_CounterSet:
  3163                           	callstack 120
  3164                           
  3165                           ; BSR set to: 2
  3166                           ;incstack = 0
  3167                           ;I2C1_CounterSet@counter stored from wreg
  3168   003134  6E04               	movwf	I2C1_CounterSet@counter^(0+1280),c
  3169   003136                     
  3170                           ;mcc_generated_files/i2c_host/src/i2c1.c: 369: static void I2C1_CounterSet(uint8_t count
      +                          er);mcc_generated_files/i2c_host/src/i2c1.c: 370: {;mcc_generated_files/i2c_host/src/i2c
      +                          1.c: 371:     I2C1CNT = counter;
  3171   003136  C504  F28D         	movff	I2C1_CounterSet@counter,653	;volatile
  3172   00313A  0012               	return		;funcret
  3173   00313C                     __end_of_I2C1_CounterSet:
  3174                           	callstack 0
  3175                           
  3176 ;; *************** function _I2C1_AddrTransmit *****************
  3177 ;; Defined at:
  3178 ;;		line 354 in file "mcc_generated_files/i2c_host/src/i2c1.c"
  3179 ;; Parameters:    Size  Location     Type
  3180 ;;  addr            1    wreg     unsigned char 
  3181 ;; Auto vars:     Size  Location     Type
  3182 ;;  addr            1    3[COMRAM] unsigned char 
  3183 ;; Return value:  Size  Location     Type
  3184 ;;                  1    wreg      void 
  3185 ;; Registers used:
  3186 ;;		wreg
  3187 ;; Tracked objects:
  3188 ;;		On entry : 0/0
  3189 ;;		On exit  : 0/0
  3190 ;;		Unchanged: 0/0
  3191 ;; Data sizes:     COMRAM   BANK5   BANK6   BANK7   BANK8   BANK9  BANK10  BANK11  BANK12  BANK13  BANK14  BANK15  BANK1
      +6  BANK17  BANK18  BANK19  BANK20  BANK21  BANK22  BANK23  BANK24  BANK25  BANK26  BANK27  BANK28  BANK29  BANK30  BANK3
      +1  BANK32  BANK33  BANK34  BANK35  BANK36
  3192 ;;      Params:         0       0       0       0       0       0       0       0       0       0       0       0       
      +0       0       0       0       0       0       0       0       0       0       0       0       0       0       0       
      +0       0       0       0       0       0
  3193 ;;      Locals:         1       0       0       0       0       0       0       0       0       0       0       0       
      +0       0       0       0       0       0       0       0       0       0       0       0       0       0       0       
      +0       0       0       0       0       0
  3194 ;;      Temps:          0       0       0       0       0       0       0       0       0       0       0       0       
      +0       0       0       0       0       0       0       0       0       0       0       0       0       0       0       
      +0       0       0       0       0       0
  3195 ;;      Totals:         1       0       0       0       0       0       0       0       0       0       0       0       
      +0       0       0       0       0       0       0       0       0       0       0       0       0       0       0       
      +0       0       0       0       0       0
  3196 ;;Total ram usage:        1 bytes
  3197 ;; Hardware stack levels used: 1
  3198 ;; Hardware stack levels required when called: 4
  3199 ;; This function calls:
  3200 ;;		Nothing
  3201 ;; This function is called by:
  3202 ;;		_I2C1_WriteStart
  3203 ;; This function uses a non-reentrant model
  3204 ;;
  3205                           
  3206                           	psect	text27
  3207   00313C                     __ptext27:
  3208                           	callstack 0
  3209   00313C                     _I2C1_AddrTransmit:
  3210                           	callstack 120
  3211                           
  3212                           ;incstack = 0
  3213                           ;I2C1_AddrTransmit@addr stored from wreg
  3214   00313C  6E04               	movwf	I2C1_AddrTransmit@addr^(0+1280),c
  3215   00313E                     
  3216                           ;mcc_generated_files/i2c_host/src/i2c1.c: 354: static void I2C1_AddrTransmit(uint8_t add
      +                          r);mcc_generated_files/i2c_host/src/i2c1.c: 355: {;mcc_generated_files/i2c_host/src/i2c1
      +                          .c: 356:     I2C1ADB1 = addr;
  3217   00313E  C504  F28F         	movff	I2C1_AddrTransmit@addr,655	;volatile
  3218   003142  0012               	return		;funcret
  3219   003144                     __end_of_I2C1_AddrTransmit:
  3220                           	callstack 0
  3221                           
  3222 ;; *************** function _I2C1_IsBusy *****************
  3223 ;; Defined at:
  3224 ;;		line 213 in file "mcc_generated_files/i2c_host/src/i2c1.c"
  3225 ;; Parameters:    Size  Location     Type
  3226 ;;		None
  3227 ;; Auto vars:     Size  Location     Type
  3228 ;;		None
  3229 ;; Return value:  Size  Location     Type
  3230 ;;                  1    wreg      _Bool 
  3231 ;; Registers used:
  3232 ;;		wreg, status,2
  3233 ;; Tracked objects:
  3234 ;;		On entry : 0/0
  3235 ;;		On exit  : 0/0
  3236 ;;		Unchanged: 0/0
  3237 ;; Data sizes:     COMRAM   BANK5   BANK6   BANK7   BANK8   BANK9  BANK10  BANK11  BANK12  BANK13  BANK14  BANK15  BANK1
      +6  BANK17  BANK18  BANK19  BANK20  BANK21  BANK22  BANK23  BANK24  BANK25  BANK26  BANK27  BANK28  BANK29  BANK30  BANK3
      +1  BANK32  BANK33  BANK34  BANK35  BANK36
  3238 ;;      Params:         0       0       0       0       0       0       0       0       0       0       0       0       
      +0       0       0       0       0       0       0       0       0       0       0       0       0       0       0       
      +0       0       0       0       0       0
  3239 ;;      Locals:         1       0       0       0       0       0       0       0       0       0       0       0       
      +0       0       0       0       0       0       0       0       0       0       0       0       0       0       0       
      +0       0       0       0       0       0
  3240 ;;      Temps:          0       0       0       0       0       0       0       0       0       0       0       0       
      +0       0       0       0       0       0       0       0       0       0       0       0       0       0       0       
      +0       0       0       0       0       0
  3241 ;;      Totals:         1       0       0       0       0       0       0       0       0       0       0       0       
      +0       0       0       0       0       0       0       0       0       0       0       0       0       0       0       
      +0       0       0       0       0       0
  3242 ;;Total ram usage:        1 bytes
  3243 ;; Hardware stack levels used: 1
  3244 ;; Hardware stack levels required when called: 4
  3245 ;; This function calls:
  3246 ;;		Nothing
  3247 ;; This function is called by:
  3248 ;;		_I2C1_Write
  3249 ;;		_I2C1_Read
  3250 ;;		_I2C1_WriteRead
  3251 ;; This function uses a non-reentrant model
  3252 ;;
  3253                           
  3254                           	psect	text28
  3255   002E58                     __ptext28:
  3256                           	callstack 0
  3257   002E58                     _I2C1_IsBusy:
  3258                           	callstack 121
  3259   002E58                     
  3260                           ;mcc_generated_files/i2c_host/src/i2c1.c: 215:     return i2c1Status.busy || !I2C1STAT0b
      +                          its.BFRE;
  3261   002E58  0E01               	movlw	1
  3262   002E5A  6E04               	movwf	_I2C1_IsBusy$603^(0+1280),c
  3263   002E5C  502D               	movf	_i2c1Status^(0+1280),w,c	;volatile
  3264   002E5E  A4D8               	btfss	status,2,c
  3265   002E60  EF34  F017         	goto	u941
  3266   002E64  EF36  F017         	goto	u940
  3267   002E68                     u941:
  3268   002E68  EF40  F017         	goto	l141
  3269   002E6C                     u940:
  3270   002E6C  0102               	movlb	2	; () banked
  3271   002E6E  AF98               	btfss	152,7,b	;volatile
  3272   002E70  EF3C  F017         	goto	u951
  3273   002E74  EF3E  F017         	goto	u950
  3274   002E78                     u951:
  3275   002E78  EF40  F017         	goto	l141
  3276   002E7C                     u950:
  3277   002E7C                     
  3278                           ; BSR set to: 2
  3279   002E7C  0E00               	movlw	0
  3280   002E7E  6E04               	movwf	_I2C1_IsBusy$603^(0+1280),c
  3281   002E80                     l141:
  3282   002E80  5004               	movf	_I2C1_IsBusy$603^(0+1280),w,c
  3283   002E82  0012               	return		;funcret
  3284   002E84                     __end_of_I2C1_IsBusy:
  3285                           	callstack 0
  3286                           
  3287 ;; *************** function _INTERRUPT_InterruptManager *****************
  3288 ;; Defined at:
  3289 ;;		line 80 in file "mcc_generated_files/system/src/interrupt.c"
  3290 ;; Parameters:    Size  Location     Type
  3291 ;;		None
  3292 ;; Auto vars:     Size  Location     Type
  3293 ;;		None
  3294 ;; Return value:  Size  Location     Type
  3295 ;;                  1    wreg      void 
  3296 ;; Registers used:
  3297 ;;		wreg, fsr2l, fsr2h, status,2, status,0, pcl, pclath, pclatu, tosl, cstack
  3298 ;; Tracked objects:
  3299 ;;		On entry : 0/0
  3300 ;;		On exit  : 0/0
  3301 ;;		Unchanged: 0/0
  3302 ;; Data sizes:     COMRAM   BANK5   BANK6   BANK7   BANK8   BANK9  BANK10  BANK11  BANK12  BANK13  BANK14  BANK15  BANK1
      +6  BANK17  BANK18  BANK19  BANK20  BANK21  BANK22  BANK23  BANK24  BANK25  BANK26  BANK27  BANK28  BANK29  BANK30  BANK3
      +1  BANK32  BANK33  BANK34  BANK35  BANK36
  3303 ;;      Params:         0       0       0       0       0       0       0       0       0       0       0       0       
      +0       0       0       0       0       0       0       0       0       0       0       0       0       0       0       
      +0       0       0       0       0       0
  3304 ;;      Locals:         0       0       0       0       0       0       0       0       0       0       0       0       
      +0       0       0       0       0       0       0       0       0       0       0       0       0       0       0       
      +0       0       0       0       0       0
  3305 ;;      Temps:          2       0       0       0       0       0       0       0       0       0       0       0       
      +0       0       0       0       0       0       0       0       0       0       0       0       0       0       0       
      +0       0       0       0       0       0
  3306 ;;      Totals:         2       0       0       0       0       0       0       0       0       0       0       0       
      +0       0       0       0       0       0       0       0       0       0       0       0       0       0       0       
      +0       0       0       0       0       0
  3307 ;;Total ram usage:        2 bytes
  3308 ;; Hardware stack levels used: 1
  3309 ;; Hardware stack levels required when called: 3
  3310 ;; This function calls:
  3311 ;;		_I2C1_ERROR_ISR
  3312 ;;		_I2C1_ISR
  3313 ;;		_I2C1_RX_ISR
  3314 ;;		_I2C1_TX_ISR
  3315 ;; This function is called by:
  3316 ;;		Interrupt level 2
  3317 ;; This function uses a non-reentrant model
  3318 ;;
  3319                           
  3320                           	psect	text29
  3321   002AA8                     __ptext29:
  3322                           	callstack 0
  3323   002AA8                     _INTERRUPT_InterruptManager:
  3324                           	callstack 117
  3325                           
  3326                           ;incstack = 0
  3327   002AA8  C4FA F502          	movff	pclath,??_INTERRUPT_InterruptManager
  3328   002AAC  C4FB F503          	movff	pclatu,??_INTERRUPT_InterruptManager+1
  3329   002AB0                     
  3330                           ;mcc_generated_files/system/src/interrupt.c: 83:     if(PIE7bits.I2C1EIE == 1 && PIR7bit
      +                          s.I2C1EIF == 1)
  3331   002AB0  A6A5               	btfss	165,3,c	;volatile
  3332   002AB2  EF5D  F015         	goto	i2u117_41
  3333   002AB6  EF5F  F015         	goto	i2u117_40
  3334   002ABA                     i2u117_41:
  3335   002ABA  EF6A  F015         	goto	i2l330
  3336   002ABE                     i2u117_40:
  3337   002ABE  A6B5               	btfss	181,3,c	;volatile
  3338   002AC0  EF64  F015         	goto	i2u118_41
  3339   002AC4  EF66  F015         	goto	i2u118_40
  3340   002AC8                     i2u118_41:
  3341   002AC8  EF6A  F015         	goto	i2l330
  3342   002ACC                     i2u118_40:
  3343   002ACC                     
  3344                           ;mcc_generated_files/system/src/interrupt.c: 84:     {;mcc_generated_files/system/src/in
      +                          terrupt.c: 85:         I2C1_ERROR_ISR();
  3345   002ACC  EC12  F014         	call	_I2C1_ERROR_ISR	;wreg free
  3346                           
  3347                           ;mcc_generated_files/system/src/interrupt.c: 86:     }
  3348   002AD0  EFA0  F015         	goto	i2l338
  3349   002AD4                     i2l330:
  3350   002AD4  A0A5               	btfss	165,0,c	;volatile
  3351   002AD6  EF6F  F015         	goto	i2u119_41
  3352   002ADA  EF71  F015         	goto	i2u119_40
  3353   002ADE                     i2u119_41:
  3354   002ADE  EF7C  F015         	goto	i2l332
  3355   002AE2                     i2u119_40:
  3356   002AE2  A0B5               	btfss	181,0,c	;volatile
  3357   002AE4  EF76  F015         	goto	i2u120_41
  3358   002AE8  EF78  F015         	goto	i2u120_40
  3359   002AEC                     i2u120_41:
  3360   002AEC  EF7C  F015         	goto	i2l332
  3361   002AF0                     i2u120_40:
  3362   002AF0                     
  3363                           ;mcc_generated_files/system/src/interrupt.c: 88:     {;mcc_generated_files/system/src/in
      +                          terrupt.c: 89:         I2C1_RX_ISR();
  3364   002AF0  EC59  F018         	call	_I2C1_RX_ISR	;wreg free
  3365                           
  3366                           ;mcc_generated_files/system/src/interrupt.c: 90:     }
  3367   002AF4  EFA0  F015         	goto	i2l338
  3368   002AF8                     i2l332:
  3369   002AF8  A4A5               	btfss	165,2,c	;volatile
  3370   002AFA  EF81  F015         	goto	i2u121_41
  3371   002AFE  EF83  F015         	goto	i2u121_40
  3372   002B02                     i2u121_41:
  3373   002B02  EF8E  F015         	goto	i2l334
  3374   002B06                     i2u121_40:
  3375   002B06  A4B5               	btfss	181,2,c	;volatile
  3376   002B08  EF88  F015         	goto	i2u122_41
  3377   002B0C  EF8A  F015         	goto	i2u122_40
  3378   002B10                     i2u122_41:
  3379   002B10  EF8E  F015         	goto	i2l334
  3380   002B14                     i2u122_40:
  3381   002B14                     
  3382                           ;mcc_generated_files/system/src/interrupt.c: 92:     {;mcc_generated_files/system/src/in
      +                          terrupt.c: 93:         I2C1_ISR();
  3383   002B14  ECA5  F015         	call	_I2C1_ISR	;wreg free
  3384                           
  3385                           ;mcc_generated_files/system/src/interrupt.c: 94:     }
  3386   002B18  EFA0  F015         	goto	i2l338
  3387   002B1C                     i2l334:
  3388   002B1C  A2A5               	btfss	165,1,c	;volatile
  3389   002B1E  EF93  F015         	goto	i2u123_41
  3390   002B22  EF95  F015         	goto	i2u123_40
  3391   002B26                     i2u123_41:
  3392   002B26  EFA0  F015         	goto	i2l333
  3393   002B2A                     i2u123_40:
  3394   002B2A  A2B5               	btfss	181,1,c	;volatile
  3395   002B2C  EF9A  F015         	goto	i2u124_41
  3396   002B30  EF9C  F015         	goto	i2u124_40
  3397   002B34                     i2u124_41:
  3398   002B34  EFA0  F015         	goto	i2l333
  3399   002B38                     i2u124_40:
  3400   002B38                     
  3401                           ;mcc_generated_files/system/src/interrupt.c: 96:     {;mcc_generated_files/system/src/in
      +                          terrupt.c: 97:         I2C1_TX_ISR();
  3402   002B38  EC4F  F018         	call	_I2C1_TX_ISR	;wreg free
  3403                           
  3404                           ;mcc_generated_files/system/src/interrupt.c: 98:     }
  3405   002B3C  EFA0  F015         	goto	i2l338
  3406   002B40                     i2l333:
  3407   002B40                     i2l338:
  3408   002B40  C503  F4FB         	movff	??_INTERRUPT_InterruptManager+1,pclatu
  3409   002B44  C502  F4FA         	movff	??_INTERRUPT_InterruptManager,pclath
  3410   002B48  0011               	retfie		f
  3411   002B4A                     __end_of_INTERRUPT_InterruptManager:
  3412                           	callstack 0
  3413                           
  3414 ;; *************** function _I2C1_TX_ISR *****************
  3415 ;; Defined at:
  3416 ;;		line 296 in file "mcc_generated_files/i2c_host/src/i2c1.c"
  3417 ;; Parameters:    Size  Location     Type
  3418 ;;		None
  3419 ;; Auto vars:     Size  Location     Type
  3420 ;;		None
  3421 ;; Return value:  Size  Location     Type
  3422 ;;                  1    wreg      void 
  3423 ;; Registers used:
  3424 ;;		wreg, fsr2l, fsr2h, status,2, status,0, cstack
  3425 ;; Tracked objects:
  3426 ;;		On entry : 0/0
  3427 ;;		On exit  : 0/0
  3428 ;;		Unchanged: 0/0
  3429 ;; Data sizes:     COMRAM   BANK5   BANK6   BANK7   BANK8   BANK9  BANK10  BANK11  BANK12  BANK13  BANK14  BANK15  BANK1
      +6  BANK17  BANK18  BANK19  BANK20  BANK21  BANK22  BANK23  BANK24  BANK25  BANK26  BANK27  BANK28  BANK29  BANK30  BANK3
      +1  BANK32  BANK33  BANK34  BANK35  BANK36
  3430 ;;      Params:         0       0       0       0       0       0       0       0       0       0       0       0       
      +0       0       0       0       0       0       0       0       0       0       0       0       0       0       0       
      +0       0       0       0       0       0
  3431 ;;      Locals:         0       0       0       0       0       0       0       0       0       0       0       0       
      +0       0       0       0       0       0       0       0       0       0       0       0       0       0       0       
      +0       0       0       0       0       0
  3432 ;;      Temps:          0       0       0       0       0       0       0       0       0       0       0       0       
      +0       0       0       0       0       0       0       0       0       0       0       0       0       0       0       
      +0       0       0       0       0       0
  3433 ;;      Totals:         0       0       0       0       0       0       0       0       0       0       0       0       
      +0       0       0       0       0       0       0       0       0       0       0       0       0       0       0       
      +0       0       0       0       0       0
  3434 ;;Total ram usage:        0 bytes
  3435 ;; Hardware stack levels used: 1
  3436 ;; Hardware stack levels required when called: 1
  3437 ;; This function calls:
  3438 ;;		_I2C1_DataTransmit
  3439 ;; This function is called by:
  3440 ;;		_INTERRUPT_InterruptManager
  3441 ;; This function uses a non-reentrant model
  3442 ;;
  3443                           
  3444                           	psect	text30
  3445   00309E                     __ptext30:
  3446                           	callstack 0
  3447   00309E                     _I2C1_TX_ISR:
  3448                           	callstack 118
  3449   00309E                     
  3450                           ;mcc_generated_files/i2c_host/src/i2c1.c: 298:     I2C1_DataTransmit(*i2c1Status.writePt
      +                          r++);
  3451   00309E  C530  F4D9         	movff	_i2c1Status+3,fsr2l	;volatile
  3452   0030A2  C531  F4DA         	movff	_i2c1Status+4,fsr2h	;volatile
  3453   0030A6  4A30               	infsnz	(_i2c1Status+3)^(0+1280),f,c	;volatile
  3454   0030A8  2A31               	incf	(_i2c1Status+4)^(0+1280),f,c	;volatile
  3455   0030AA  50DF               	movf	indf2,w,c
  3456   0030AC  ECAA  F018         	call	_I2C1_DataTransmit
  3457   0030B0  0012               	return		;funcret
  3458   0030B2                     __end_of_I2C1_TX_ISR:
  3459                           	callstack 0
  3460                           
  3461 ;; *************** function _I2C1_RX_ISR *****************
  3462 ;; Defined at:
  3463 ;;		line 291 in file "mcc_generated_files/i2c_host/src/i2c1.c"
  3464 ;; Parameters:    Size  Location     Type
  3465 ;;		None
  3466 ;; Auto vars:     Size  Location     Type
  3467 ;;		None
  3468 ;; Return value:  Size  Location     Type
  3469 ;;                  1    wreg      void 
  3470 ;; Registers used:
  3471 ;;		wreg, fsr2l, fsr2h, status,2, status,0, cstack
  3472 ;; Tracked objects:
  3473 ;;		On entry : 0/0
  3474 ;;		On exit  : 0/0
  3475 ;;		Unchanged: 0/0
  3476 ;; Data sizes:     COMRAM   BANK5   BANK6   BANK7   BANK8   BANK9  BANK10  BANK11  BANK12  BANK13  BANK14  BANK15  BANK1
      +6  BANK17  BANK18  BANK19  BANK20  BANK21  BANK22  BANK23  BANK24  BANK25  BANK26  BANK27  BANK28  BANK29  BANK30  BANK3
      +1  BANK32  BANK33  BANK34  BANK35  BANK36
  3477 ;;      Params:         0       0       0       0       0       0       0       0       0       0       0       0       
      +0       0       0       0       0       0       0       0       0       0       0       0       0       0       0       
      +0       0       0       0       0       0
  3478 ;;      Locals:         0       0       0       0       0       0       0       0       0       0       0       0       
      +0       0       0       0       0       0       0       0       0       0       0       0       0       0       0       
      +0       0       0       0       0       0
  3479 ;;      Temps:          0       0       0       0       0       0       0       0       0       0       0       0       
      +0       0       0       0       0       0       0       0       0       0       0       0       0       0       0       
      +0       0       0       0       0       0
  3480 ;;      Totals:         0       0       0       0       0       0       0       0       0       0       0       0       
      +0       0       0       0       0       0       0       0       0       0       0       0       0       0       0       
      +0       0       0       0       0       0
  3481 ;;Total ram usage:        0 bytes
  3482 ;; Hardware stack levels used: 1
  3483 ;; Hardware stack levels required when called: 1
  3484 ;; This function calls:
  3485 ;;		_I2C1_DataReceive
  3486 ;; This function is called by:
  3487 ;;		_INTERRUPT_InterruptManager
  3488 ;; This function uses a non-reentrant model
  3489 ;;
  3490                           
  3491                           	psect	text31
  3492   0030B2                     __ptext31:
  3493                           	callstack 0
  3494   0030B2                     _I2C1_RX_ISR:
  3495                           	callstack 118
  3496   0030B2                     
  3497                           ;mcc_generated_files/i2c_host/src/i2c1.c: 293:     *i2c1Status.readPtr++ = I2C1_DataRece
      +                          ive();
  3498   0030B2  ECB8  F018         	call	_I2C1_DataReceive	;wreg free
  3499   0030B6  C534  F4D9         	movff	_i2c1Status+7,fsr2l	;volatile
  3500   0030BA  C535  F4DA         	movff	_i2c1Status+8,fsr2h	;volatile
  3501   0030BE  6EDF               	movwf	indf2,c
  3502   0030C0  4A34               	infsnz	(_i2c1Status+7)^(0+1280),f,c	;volatile
  3503   0030C2  2A35               	incf	(_i2c1Status+8)^(0+1280),f,c	;volatile
  3504   0030C4  0012               	return		;funcret
  3505   0030C6                     __end_of_I2C1_RX_ISR:
  3506                           	callstack 0
  3507                           
  3508 ;; *************** function _I2C1_DataReceive *****************
  3509 ;; Defined at:
  3510 ;;		line 364 in file "mcc_generated_files/i2c_host/src/i2c1.c"
  3511 ;; Parameters:    Size  Location     Type
  3512 ;;		None
  3513 ;; Auto vars:     Size  Location     Type
  3514 ;;		None
  3515 ;; Return value:  Size  Location     Type
  3516 ;;                  1    wreg      unsigned char 
  3517 ;; Registers used:
  3518 ;;		wreg, status,2
  3519 ;; Tracked objects:
  3520 ;;		On entry : 0/0
  3521 ;;		On exit  : 0/0
  3522 ;;		Unchanged: 0/0
  3523 ;; Data sizes:     COMRAM   BANK5   BANK6   BANK7   BANK8   BANK9  BANK10  BANK11  BANK12  BANK13  BANK14  BANK15  BANK1
      +6  BANK17  BANK18  BANK19  BANK20  BANK21  BANK22  BANK23  BANK24  BANK25  BANK26  BANK27  BANK28  BANK29  BANK30  BANK3
      +1  BANK32  BANK33  BANK34  BANK35  BANK36
  3524 ;;      Params:         0       0       0       0       0       0       0       0       0       0       0       0       
      +0       0       0       0       0       0       0       0       0       0       0       0       0       0       0       
      +0       0       0       0       0       0
  3525 ;;      Locals:         0       0       0       0       0       0       0       0       0       0       0       0       
      +0       0       0       0       0       0       0       0       0       0       0       0       0       0       0       
      +0       0       0       0       0       0
  3526 ;;      Temps:          0       0       0       0       0       0       0       0       0       0       0       0       
      +0       0       0       0       0       0       0       0       0       0       0       0       0       0       0       
      +0       0       0       0       0       0
  3527 ;;      Totals:         0       0       0       0       0       0       0       0       0       0       0       0       
      +0       0       0       0       0       0       0       0       0       0       0       0       0       0       0       
      +0       0       0       0       0       0
  3528 ;;Total ram usage:        0 bytes
  3529 ;; Hardware stack levels used: 1
  3530 ;; This function calls:
  3531 ;;		Nothing
  3532 ;; This function is called by:
  3533 ;;		_I2C1_RX_ISR
  3534 ;; This function uses a non-reentrant model
  3535 ;;
  3536                           
  3537                           	psect	text32
  3538   003170                     __ptext32:
  3539                           	callstack 0
  3540   003170                     _I2C1_DataReceive:
  3541                           	callstack 118
  3542   003170                     
  3543                           ;mcc_generated_files/i2c_host/src/i2c1.c: 366:     return I2C1RXB;
  3544   003170  0102               	movlb	2	; () banked
  3545   003172  518B               	movf	139,w,b	;volatile
  3546   003174                     
  3547                           ; BSR set to: 2
  3548   003174  0012               	return		;funcret
  3549   003176                     __end_of_I2C1_DataReceive:
  3550                           	callstack 0
  3551                           
  3552 ;; *************** function _I2C1_ISR *****************
  3553 ;; Defined at:
  3554 ;;		line 226 in file "mcc_generated_files/i2c_host/src/i2c1.c"
  3555 ;; Parameters:    Size  Location     Type
  3556 ;;		None
  3557 ;; Auto vars:     Size  Location     Type
  3558 ;;		None
  3559 ;; Return value:  Size  Location     Type
  3560 ;;                  1    wreg      void 
  3561 ;; Registers used:
  3562 ;;		wreg, status,2, status,0, cstack
  3563 ;; Tracked objects:
  3564 ;;		On entry : 0/0
  3565 ;;		On exit  : 0/0
  3566 ;;		Unchanged: 0/0
  3567 ;; Data sizes:     COMRAM   BANK5   BANK6   BANK7   BANK8   BANK9  BANK10  BANK11  BANK12  BANK13  BANK14  BANK15  BANK1
      +6  BANK17  BANK18  BANK19  BANK20  BANK21  BANK22  BANK23  BANK24  BANK25  BANK26  BANK27  BANK28  BANK29  BANK30  BANK3
      +1  BANK32  BANK33  BANK34  BANK35  BANK36
  3568 ;;      Params:         0       0       0       0       0       0       0       0       0       0       0       0       
      +0       0       0       0       0       0       0       0       0       0       0       0       0       0       0       
      +0       0       0       0       0       0
  3569 ;;      Locals:         0       0       0       0       0       0       0       0       0       0       0       0       
      +0       0       0       0       0       0       0       0       0       0       0       0       0       0       0       
      +0       0       0       0       0       0
  3570 ;;      Temps:          0       0       0       0       0       0       0       0       0       0       0       0       
      +0       0       0       0       0       0       0       0       0       0       0       0       0       0       0       
      +0       0       0       0       0       0
  3571 ;;      Totals:         0       0       0       0       0       0       0       0       0       0       0       0       
      +0       0       0       0       0       0       0       0       0       0       0       0       0       0       0       
      +0       0       0       0       0       0
  3572 ;;Total ram usage:        0 bytes
  3573 ;; Hardware stack levels used: 1
  3574 ;; Hardware stack levels required when called: 2
  3575 ;; This function calls:
  3576 ;;		_I2C1_Close
  3577 ;;		_I2C1_ReadStart
  3578 ;;		_I2C1_RestartDisable
  3579 ;;		_I2C1_StopSend
  3580 ;; This function is called by:
  3581 ;;		_INTERRUPT_InterruptManager
  3582 ;; This function uses a non-reentrant model
  3583 ;;
  3584                           
  3585                           	psect	text33
  3586   002B4A                     __ptext33:
  3587                           	callstack 0
  3588   002B4A                     _I2C1_ISR:
  3589                           	callstack 117
  3590   002B4A                     
  3591                           ;mcc_generated_files/i2c_host/src/i2c1.c: 228:     if (I2C1PIEbits.PCIE && I2C1PIRbits.P
      +                          CIF)
  3592   002B4A  0102               	movlb	2	; () banked
  3593   002B4C  A59B               	btfss	155,2,b	;volatile
  3594   002B4E  EFAB  F015         	goto	i2u100_41
  3595   002B52  EFAD  F015         	goto	i2u100_40
  3596   002B56                     i2u100_41:
  3597   002B56  EFB8  F015         	goto	i2l149
  3598   002B5A                     i2u100_40:
  3599   002B5A                     
  3600                           ; BSR set to: 2
  3601   002B5A  A59A               	btfss	154,2,b	;volatile
  3602   002B5C  EFB2  F015         	goto	i2u101_41
  3603   002B60  EFB4  F015         	goto	i2u101_40
  3604   002B64                     i2u101_41:
  3605   002B64  EFB8  F015         	goto	i2l149
  3606   002B68                     i2u101_40:
  3607   002B68                     i2l2365:
  3608                           
  3609                           ;mcc_generated_files/i2c_host/src/i2c1.c: 229:     {;mcc_generated_files/i2c_host/src/i2
      +                          c1.c: 230:         I2C1_Close();
  3610   002B68  EC57  F017         	call	_I2C1_Close	;wreg free
  3611                           
  3612                           ;mcc_generated_files/i2c_host/src/i2c1.c: 231:     }
  3613   002B6C  EFEC  F015         	goto	i2l156
  3614   002B70                     i2l149:
  3615                           
  3616                           ; BSR set to: 2
  3617   002B70  AF9B               	btfss	155,7,b	;volatile
  3618   002B72  EFBD  F015         	goto	i2u102_41
  3619   002B76  EFBF  F015         	goto	i2u102_40
  3620   002B7A                     i2u102_41:
  3621   002B7A  EFDA  F015         	goto	i2l151
  3622   002B7E                     i2u102_40:
  3623   002B7E                     
  3624                           ; BSR set to: 2
  3625   002B7E  AF9A               	btfss	154,7,b	;volatile
  3626   002B80  EFC4  F015         	goto	i2u103_41
  3627   002B84  EFC6  F015         	goto	i2u103_40
  3628   002B88                     i2u103_41:
  3629   002B88  EFDA  F015         	goto	i2l151
  3630   002B8C                     i2u103_40:
  3631   002B8C                     
  3632                           ; BSR set to: 2
  3633                           ;mcc_generated_files/i2c_host/src/i2c1.c: 233:     {;mcc_generated_files/i2c_host/src/i2
      +                          c1.c: 235:         if (i2c1Status.switchToRead)
  3634   002B8C  5038               	movf	(_i2c1Status+11)^(0+1280),w,c	;volatile
  3635   002B8E  B4D8               	btfsc	status,2,c
  3636   002B90  EFCC  F015         	goto	i2u104_41
  3637   002B94  EFCE  F015         	goto	i2u104_40
  3638   002B98                     i2u104_41:
  3639   002B98  EFD6  F015         	goto	i2l2379
  3640   002B9C                     i2u104_40:
  3641   002B9C                     
  3642                           ; BSR set to: 2
  3643                           ;mcc_generated_files/i2c_host/src/i2c1.c: 236:         {;mcc_generated_files/i2c_host/sr
      +                          c/i2c1.c: 237:             i2c1Status.switchToRead = 0;
  3644   002B9C  0E00               	movlw	0
  3645   002B9E  6E38               	movwf	(_i2c1Status+11)^(0+1280),c	;volatile
  3646   002BA0                     
  3647                           ; BSR set to: 2
  3648                           ;mcc_generated_files/i2c_host/src/i2c1.c: 238:             I2C1PIRbits.SCIF = 0;
  3649   002BA0  919A               	bcf	154,0,b	;volatile
  3650   002BA2                     
  3651                           ; BSR set to: 2
  3652                           ;mcc_generated_files/i2c_host/src/i2c1.c: 239:             I2C1PIRbits.CNTIF = 0;
  3653   002BA2  9F9A               	bcf	154,7,b	;volatile
  3654   002BA4                     
  3655                           ; BSR set to: 2
  3656                           ;mcc_generated_files/i2c_host/src/i2c1.c: 240:             I2C1_ReadStart();
  3657   002BA4  EC6B  F017         	call	_I2C1_ReadStart	;wreg free
  3658                           
  3659                           ;mcc_generated_files/i2c_host/src/i2c1.c: 241:         }
  3660   002BA8  EFEC  F015         	goto	i2l156
  3661   002BAC                     i2l2379:
  3662                           
  3663                           ; BSR set to: 2
  3664                           ;mcc_generated_files/i2c_host/src/i2c1.c: 243:         {;mcc_generated_files/i2c_host/sr
      +                          c/i2c1.c: 244:             I2C1_StopSend();
  3665   002BAC  EC7E  F017         	call	_I2C1_StopSend	;wreg free
  3666   002BB0  EFB4  F015         	goto	i2l2365
  3667   002BB4                     i2l151:
  3668                           
  3669                           ; BSR set to: 2
  3670   002BB4  A39B               	btfss	155,1,b	;volatile
  3671   002BB6  EFDF  F015         	goto	i2u105_41
  3672   002BBA  EFE1  F015         	goto	i2u105_40
  3673   002BBE                     i2u105_41:
  3674   002BBE  EFEC  F015         	goto	i2l156
  3675   002BC2                     i2u105_40:
  3676   002BC2                     
  3677                           ; BSR set to: 2
  3678   002BC2  A39A               	btfss	154,1,b	;volatile
  3679   002BC4  EFE6  F015         	goto	i2u106_41
  3680   002BC8  EFE8  F015         	goto	i2u106_40
  3681   002BCC                     i2u106_41:
  3682   002BCC  EFEC  F015         	goto	i2l156
  3683   002BD0                     i2u106_40:
  3684   002BD0                     
  3685                           ; BSR set to: 2
  3686                           ;mcc_generated_files/i2c_host/src/i2c1.c: 249:     {;mcc_generated_files/i2c_host/src/i2
      +                          c1.c: 250:         I2C1_RestartDisable();
  3687   002BD0  ECBE  F018         	call	_I2C1_RestartDisable	;wreg free
  3688   002BD4                     
  3689                           ;mcc_generated_files/i2c_host/src/i2c1.c: 251:         I2C1PIRbits.RSCIF = 0;
  3690   002BD4  0102               	movlb	2	; () banked
  3691   002BD6  939A               	bcf	154,1,b	;volatile
  3692   002BD8                     i2l156:
  3693   002BD8  0012               	return		;funcret
  3694   002BDA                     __end_of_I2C1_ISR:
  3695                           	callstack 0
  3696                           
  3697 ;; *************** function _I2C1_ReadStart *****************
  3698 ;; Defined at:
  3699 ;;		line 304 in file "mcc_generated_files/i2c_host/src/i2c1.c"
  3700 ;; Parameters:    Size  Location     Type
  3701 ;;		None
  3702 ;; Auto vars:     Size  Location     Type
  3703 ;;		None
  3704 ;; Return value:  Size  Location     Type
  3705 ;;                  1    wreg      void 
  3706 ;; Registers used:
  3707 ;;		wreg, status,2, status,0, cstack
  3708 ;; Tracked objects:
  3709 ;;		On entry : 0/0
  3710 ;;		On exit  : 0/0
  3711 ;;		Unchanged: 0/0
  3712 ;; Data sizes:     COMRAM   BANK5   BANK6   BANK7   BANK8   BANK9  BANK10  BANK11  BANK12  BANK13  BANK14  BANK15  BANK1
      +6  BANK17  BANK18  BANK19  BANK20  BANK21  BANK22  BANK23  BANK24  BANK25  BANK26  BANK27  BANK28  BANK29  BANK30  BANK3
      +1  BANK32  BANK33  BANK34  BANK35  BANK36
  3713 ;;      Params:         0       0       0       0       0       0       0       0       0       0       0       0       
      +0       0       0       0       0       0       0       0       0       0       0       0       0       0       0       
      +0       0       0       0       0       0
  3714 ;;      Locals:         0       0       0       0       0       0       0       0       0       0       0       0       
      +0       0       0       0       0       0       0       0       0       0       0       0       0       0       0       
      +0       0       0       0       0       0
  3715 ;;      Temps:          0       0       0       0       0       0       0       0       0       0       0       0       
      +0       0       0       0       0       0       0       0       0       0       0       0       0       0       0       
      +0       0       0       0       0       0
  3716 ;;      Totals:         0       0       0       0       0       0       0       0       0       0       0       0       
      +0       0       0       0       0       0       0       0       0       0       0       0       0       0       0       
      +0       0       0       0       0       0
  3717 ;;Total ram usage:        0 bytes
  3718 ;; Hardware stack levels used: 1
  3719 ;; Hardware stack levels required when called: 1
  3720 ;; This function calls:
  3721 ;;		i2_I2C1_AddrTransmit
  3722 ;;		i2_I2C1_CounterSet
  3723 ;;		i2_I2C1_StartSend
  3724 ;; This function is called by:
  3725 ;;		_I2C1_ISR
  3726 ;;		_I2C1_Read
  3727 ;; This function uses a non-reentrant model
  3728 ;;
  3729                           
  3730                           	psect	text34
  3731   002ED6                     __ptext34:
  3732                           	callstack 0
  3733   002ED6                     _I2C1_ReadStart:
  3734                           	callstack 117
  3735   002ED6                     
  3736                           ;mcc_generated_files/i2c_host/src/i2c1.c: 306:     if (i2c1Status.readLength)
  3737   002ED6  5036               	movf	(_i2c1Status+9)^(0+1280),w,c	;volatile
  3738   002ED8  1037               	iorwf	(_i2c1Status+10)^(0+1280),w,c	;volatile
  3739   002EDA  B4D8               	btfsc	status,2,c
  3740   002EDC  EF72  F017         	goto	i2u96_41
  3741   002EE0  EF74  F017         	goto	i2u96_40
  3742   002EE4                     i2u96_41:
  3743   002EE4  EF77  F017         	goto	i2l2299
  3744   002EE8                     i2u96_40:
  3745   002EE8                     
  3746                           ;mcc_generated_files/i2c_host/src/i2c1.c: 307:     {;mcc_generated_files/i2c_host/src/i2
      +                          c1.c: 308:         I2C1_CounterSet((uint8_t) i2c1Status.readLength);
  3747   002EE8  5036               	movf	(_i2c1Status+9)^(0+1280),w,c	;volatile
  3748   002EEA  ECA6  F018         	call	i2_I2C1_CounterSet
  3749   002EEE                     i2l2299:
  3750                           
  3751                           ;mcc_generated_files/i2c_host/src/i2c1.c: 311:     I2C1_AddrTransmit((uint8_t) (i2c1Stat
      +                          us.address << 1 | 1));
  3752   002EEE  80D8               	bsf	status,0,c
  3753   002EF0  342E               	rlcf	(_i2c1Status+1)^(0+1280),w,c	;volatile
  3754   002EF2  ECA2  F018         	call	i2_I2C1_AddrTransmit
  3755   002EF6                     
  3756                           ;mcc_generated_files/i2c_host/src/i2c1.c: 312:     I2C1_StartSend();
  3757   002EF6  ECBB  F018         	call	i2_I2C1_StartSend	;wreg free
  3758   002EFA  0012               	return		;funcret
  3759   002EFC                     __end_of_I2C1_ReadStart:
  3760                           	callstack 0
  3761                           
  3762 ;; *************** function i2_I2C1_StartSend *****************
  3763 ;; Defined at:
  3764 ;;		line 349 in file "mcc_generated_files/i2c_host/src/i2c1.c"
  3765 ;; Parameters:    Size  Location     Type
  3766 ;;		None
  3767 ;; Auto vars:     Size  Location     Type
  3768 ;;		None
  3769 ;; Return value:  Size  Location     Type
  3770 ;;                  1    wreg      void 
  3771 ;; Registers used:
  3772 ;;		None
  3773 ;; Tracked objects:
  3774 ;;		On entry : 0/0
  3775 ;;		On exit  : 0/0
  3776 ;;		Unchanged: 0/0
  3777 ;; Data sizes:     COMRAM   BANK5   BANK6   BANK7   BANK8   BANK9  BANK10  BANK11  BANK12  BANK13  BANK14  BANK15  BANK1
      +6  BANK17  BANK18  BANK19  BANK20  BANK21  BANK22  BANK23  BANK24  BANK25  BANK26  BANK27  BANK28  BANK29  BANK30  BANK3
      +1  BANK32  BANK33  BANK34  BANK35  BANK36
  3778 ;;      Params:         0       0       0       0       0       0       0       0       0       0       0       0       
      +0       0       0       0       0       0       0       0       0       0       0       0       0       0       0       
      +0       0       0       0       0       0
  3779 ;;      Locals:         0       0       0       0       0       0       0       0       0       0       0       0       
      +0       0       0       0       0       0       0       0       0       0       0       0       0       0       0       
      +0       0       0       0       0       0
  3780 ;;      Temps:          0       0       0       0       0       0       0       0       0       0       0       0       
      +0       0       0       0       0       0       0       0       0       0       0       0       0       0       0       
      +0       0       0       0       0       0
  3781 ;;      Totals:         0       0       0       0       0       0       0       0       0       0       0       0       
      +0       0       0       0       0       0       0       0       0       0       0       0       0       0       0       
      +0       0       0       0       0       0
  3782 ;;Total ram usage:        0 bytes
  3783 ;; Hardware stack levels used: 1
  3784 ;; This function calls:
  3785 ;;		Nothing
  3786 ;; This function is called by:
  3787 ;;		_I2C1_ReadStart
  3788 ;; This function uses a non-reentrant model
  3789 ;;
  3790                           
  3791                           	psect	text35
  3792   003176                     __ptext35:
  3793                           	callstack 0
  3794   003176                     i2_I2C1_StartSend:
  3795                           	callstack 117
  3796   003176                     
  3797                           ;mcc_generated_files/i2c_host/src/i2c1.c: 351:     I2C1CON0bits.S = 1;
  3798   003176  0102               	movlb	2	; () banked
  3799   003178  8B94               	bsf	148,5,b	;volatile
  3800   00317A                     
  3801                           ; BSR set to: 2
  3802   00317A  0012               	return		;funcret
  3803   00317C                     __end_ofi2_I2C1_StartSend:
  3804                           	callstack 0
  3805                           
  3806 ;; *************** function i2_I2C1_AddrTransmit *****************
  3807 ;; Defined at:
  3808 ;;		line 354 in file "mcc_generated_files/i2c_host/src/i2c1.c"
  3809 ;; Parameters:    Size  Location     Type
  3810 ;;  addr            1    wreg     unsigned char 
  3811 ;; Auto vars:     Size  Location     Type
  3812 ;;  addr            1    0[COMRAM] unsigned char 
  3813 ;; Return value:  Size  Location     Type
  3814 ;;                  1    wreg      void 
  3815 ;; Registers used:
  3816 ;;		wreg
  3817 ;; Tracked objects:
  3818 ;;		On entry : 0/0
  3819 ;;		On exit  : 0/0
  3820 ;;		Unchanged: 0/0
  3821 ;; Data sizes:     COMRAM   BANK5   BANK6   BANK7   BANK8   BANK9  BANK10  BANK11  BANK12  BANK13  BANK14  BANK15  BANK1
      +6  BANK17  BANK18  BANK19  BANK20  BANK21  BANK22  BANK23  BANK24  BANK25  BANK26  BANK27  BANK28  BANK29  BANK30  BANK3
      +1  BANK32  BANK33  BANK34  BANK35  BANK36
  3822 ;;      Params:         0       0       0       0       0       0       0       0       0       0       0       0       
      +0       0       0       0       0       0       0       0       0       0       0       0       0       0       0       
      +0       0       0       0       0       0
  3823 ;;      Locals:         1       0       0       0       0       0       0       0       0       0       0       0       
      +0       0       0       0       0       0       0       0       0       0       0       0       0       0       0       
      +0       0       0       0       0       0
  3824 ;;      Temps:          0       0       0       0       0       0       0       0       0       0       0       0       
      +0       0       0       0       0       0       0       0       0       0       0       0       0       0       0       
      +0       0       0       0       0       0
  3825 ;;      Totals:         1       0       0       0       0       0       0       0       0       0       0       0       
      +0       0       0       0       0       0       0       0       0       0       0       0       0       0       0       
      +0       0       0       0       0       0
  3826 ;;Total ram usage:        1 bytes
  3827 ;; Hardware stack levels used: 1
  3828 ;; This function calls:
  3829 ;;		Nothing
  3830 ;; This function is called by:
  3831 ;;		_I2C1_ReadStart
  3832 ;; This function uses a non-reentrant model
  3833 ;;
  3834                           
  3835                           	psect	text36
  3836   003144                     __ptext36:
  3837                           	callstack 0
  3838   003144                     i2_I2C1_AddrTransmit:
  3839                           	callstack 117
  3840                           
  3841                           ; BSR set to: 2
  3842                           ;incstack = 0
  3843                           ;i2I2C1_AddrTransmit@addr stored from wreg
  3844   003144  6E01               	movwf	i2I2C1_AddrTransmit@addr^(0+1280),c
  3845   003146                     
  3846                           ;mcc_generated_files/i2c_host/src/i2c1.c: 354: static void I2C1_AddrTransmit(uint8_t add
      +                          r);mcc_generated_files/i2c_host/src/i2c1.c: 355: {;mcc_generated_files/i2c_host/src/i2c1
      +                          .c: 356:     I2C1ADB1 = addr;
  3847   003146  C501  F28F         	movff	i2I2C1_AddrTransmit@addr,655	;volatile
  3848   00314A  0012               	return		;funcret
  3849   00314C                     __end_ofi2_I2C1_AddrTransmit:
  3850                           	callstack 0
  3851                           
  3852 ;; *************** function _I2C1_Close *****************
  3853 ;; Defined at:
  3854 ;;		line 330 in file "mcc_generated_files/i2c_host/src/i2c1.c"
  3855 ;; Parameters:    Size  Location     Type
  3856 ;;		None
  3857 ;; Auto vars:     Size  Location     Type
  3858 ;;		None
  3859 ;; Return value:  Size  Location     Type
  3860 ;;                  1    wreg      void 
  3861 ;; Registers used:
  3862 ;;		wreg, status,2, status,0, cstack
  3863 ;; Tracked objects:
  3864 ;;		On entry : 0/0
  3865 ;;		On exit  : 0/0
  3866 ;;		Unchanged: 0/0
  3867 ;; Data sizes:     COMRAM   BANK5   BANK6   BANK7   BANK8   BANK9  BANK10  BANK11  BANK12  BANK13  BANK14  BANK15  BANK1
      +6  BANK17  BANK18  BANK19  BANK20  BANK21  BANK22  BANK23  BANK24  BANK25  BANK26  BANK27  BANK28  BANK29  BANK30  BANK3
      +1  BANK32  BANK33  BANK34  BANK35  BANK36
  3868 ;;      Params:         0       0       0       0       0       0       0       0       0       0       0       0       
      +0       0       0       0       0       0       0       0       0       0       0       0       0       0       0       
      +0       0       0       0       0       0
  3869 ;;      Locals:         0       0       0       0       0       0       0       0       0       0       0       0       
      +0       0       0       0       0       0       0       0       0       0       0       0       0       0       0       
      +0       0       0       0       0       0
  3870 ;;      Temps:          0       0       0       0       0       0       0       0       0       0       0       0       
      +0       0       0       0       0       0       0       0       0       0       0       0       0       0       0       
      +0       0       0       0       0       0
  3871 ;;      Totals:         0       0       0       0       0       0       0       0       0       0       0       0       
      +0       0       0       0       0       0       0       0       0       0       0       0       0       0       0       
      +0       0       0       0       0       0
  3872 ;;Total ram usage:        0 bytes
  3873 ;; Hardware stack levels used: 1
  3874 ;; Hardware stack levels required when called: 1
  3875 ;; This function calls:
  3876 ;;		_I2C1_BufferClear
  3877 ;;		_I2C1_ErrorFlagsClear
  3878 ;;		_I2C1_InterruptsClear
  3879 ;; This function is called by:
  3880 ;;		_I2C1_ISR
  3881 ;; This function uses a non-reentrant model
  3882 ;;
  3883                           
  3884                           	psect	text37
  3885   002EAE                     __ptext37:
  3886                           	callstack 0
  3887   002EAE                     _I2C1_Close:
  3888                           	callstack 117
  3889   002EAE                     
  3890                           ;mcc_generated_files/i2c_host/src/i2c1.c: 332:     i2c1Status.busy = 0;
  3891   002EAE  0E00               	movlw	0
  3892   002EB0  6E2D               	movwf	_i2c1Status^(0+1280),c	;volatile
  3893                           
  3894                           ;mcc_generated_files/i2c_host/src/i2c1.c: 333:     i2c1Status.address = 0xFF;
  3895   002EB2  0E00               	movlw	0
  3896   002EB4  6E2F               	movwf	(_i2c1Status+2)^(0+1280),c	;volatile
  3897   002EB6  682E               	setf	(_i2c1Status+1)^(0+1280),c	;volatile
  3898   002EB8                     
  3899                           ;mcc_generated_files/i2c_host/src/i2c1.c: 334:     i2c1Status.writePtr = ((void*)0);
  3900   002EB8  0E00               	movlw	0
  3901   002EBA  6E30               	movwf	(_i2c1Status+3)^(0+1280),c	;volatile
  3902   002EBC  0E00               	movlw	0
  3903   002EBE  6E31               	movwf	(_i2c1Status+4)^(0+1280),c	;volatile
  3904   002EC0                     
  3905                           ;mcc_generated_files/i2c_host/src/i2c1.c: 335:     i2c1Status.readPtr = ((void*)0);
  3906   002EC0  0E00               	movlw	0
  3907   002EC2  6E34               	movwf	(_i2c1Status+7)^(0+1280),c	;volatile
  3908   002EC4  0E00               	movlw	0
  3909   002EC6  6E35               	movwf	(_i2c1Status+8)^(0+1280),c	;volatile
  3910   002EC8                     
  3911                           ;mcc_generated_files/i2c_host/src/i2c1.c: 336:     I2C1_InterruptsClear();
  3912   002EC8  ECAE  F018         	call	_I2C1_InterruptsClear	;wreg free
  3913                           
  3914                           ;mcc_generated_files/i2c_host/src/i2c1.c: 337:     I2C1_ErrorFlagsClear();
  3915   002ECC  EC8C  F018         	call	_I2C1_ErrorFlagsClear	;wreg free
  3916   002ED0                     
  3917                           ;mcc_generated_files/i2c_host/src/i2c1.c: 338:     I2C1_BufferClear();
  3918   002ED0  EC91  F018         	call	_I2C1_BufferClear	;wreg free
  3919   002ED4  0012               	return		;funcret
  3920   002ED6                     __end_of_I2C1_Close:
  3921                           	callstack 0
  3922                           
  3923 ;; *************** function _I2C1_ERROR_ISR *****************
  3924 ;; Defined at:
  3925 ;;		line 255 in file "mcc_generated_files/i2c_host/src/i2c1.c"
  3926 ;; Parameters:    Size  Location     Type
  3927 ;;		None
  3928 ;; Auto vars:     Size  Location     Type
  3929 ;;		None
  3930 ;; Return value:  Size  Location     Type
  3931 ;;                  1    wreg      void 
  3932 ;; Registers used:
  3933 ;;		wreg, status,2, pcl, pclath, pclatu, tosl, cstack
  3934 ;; Tracked objects:
  3935 ;;		On entry : 0/0
  3936 ;;		On exit  : 0/0
  3937 ;;		Unchanged: 0/0
  3938 ;; Data sizes:     COMRAM   BANK5   BANK6   BANK7   BANK8   BANK9  BANK10  BANK11  BANK12  BANK13  BANK14  BANK15  BANK1
      +6  BANK17  BANK18  BANK19  BANK20  BANK21  BANK22  BANK23  BANK24  BANK25  BANK26  BANK27  BANK28  BANK29  BANK30  BANK3
      +1  BANK32  BANK33  BANK34  BANK35  BANK36
  3939 ;;      Params:         0       0       0       0       0       0       0       0       0       0       0       0       
      +0       0       0       0       0       0       0       0       0       0       0       0       0       0       0       
      +0       0       0       0       0       0
  3940 ;;      Locals:         0       0       0       0       0       0       0       0       0       0       0       0       
      +0       0       0       0       0       0       0       0       0       0       0       0       0       0       0       
      +0       0       0       0       0       0
  3941 ;;      Temps:          0       0       0       0       0       0       0       0       0       0       0       0       
      +0       0       0       0       0       0       0       0       0       0       0       0       0       0       0       
      +0       0       0       0       0       0
  3942 ;;      Totals:         0       0       0       0       0       0       0       0       0       0       0       0       
      +0       0       0       0       0       0       0       0       0       0       0       0       0       0       0       
      +0       0       0       0       0       0
  3943 ;;Total ram usage:        0 bytes
  3944 ;; Hardware stack levels used: 1
  3945 ;; Hardware stack levels required when called: 2
  3946 ;; This function calls:
  3947 ;;		NULL
  3948 ;;		_I2C1_BusReset
  3949 ;;		_I2C1_DefaultCallback
  3950 ;;		_I2C1_IsAddr
  3951 ;;		_I2C1_IsBusCol
  3952 ;;		_I2C1_IsBusTimeOut
  3953 ;;		_I2C1_IsData
  3954 ;;		_I2C1_IsNack
  3955 ;;		_I2C1_StopSend
  3956 ;; This function is called by:
  3957 ;;		_INTERRUPT_InterruptManager
  3958 ;; This function uses a non-reentrant model
  3959 ;;
  3960                           
  3961                           	psect	text38
  3962   002824                     __ptext38:
  3963                           	callstack 0
  3964   002824                     _I2C1_ERROR_ISR:
  3965                           	callstack 117
  3966   002824                     
  3967                           ;mcc_generated_files/i2c_host/src/i2c1.c: 257:     if (I2C1_IsBusCol())
  3968   002824  EC2F  F018         	call	_I2C1_IsBusCol	;wreg free
  3969   002828  0900               	iorlw	0
  3970   00282A  B4D8               	btfsc	status,2,c
  3971   00282C  EF1A  F014         	goto	i2u107_41
  3972   002830  EF1C  F014         	goto	i2u107_40
  3973   002834                     i2u107_41:
  3974   002834  EF24  F014         	goto	i2l2397
  3975   002838                     i2u107_40:
  3976   002838                     
  3977                           ;mcc_generated_files/i2c_host/src/i2c1.c: 258:     {;mcc_generated_files/i2c_host/src/i2
      +                          c1.c: 259:         i2c1Status.errorState = I2C_ERROR_BUS_COLLISION;
  3978   002838  0E03               	movlw	3
  3979   00283A  6E39               	movwf	(_i2c1Status+12)^(0+1280),c	;volatile
  3980   00283C                     
  3981                           ;mcc_generated_files/i2c_host/src/i2c1.c: 260:         I2C1ERRbits.BCLIF = 0;
  3982   00283C  0102               	movlb	2	; () banked
  3983   00283E  9B97               	bcf	151,5,b	;volatile
  3984   002840                     
  3985                           ; BSR set to: 2
  3986                           ;mcc_generated_files/i2c_host/src/i2c1.c: 261:         I2C1_BusReset();
  3987   002840  ECF0  F016         	call	_I2C1_BusReset	;wreg free
  3988                           
  3989                           ;mcc_generated_files/i2c_host/src/i2c1.c: 262:     }
  3990   002844  EF6C  F014         	goto	i2l2423
  3991   002848                     i2l2397:
  3992   002848  EC3A  F018         	call	_I2C1_IsAddr	;wreg free
  3993   00284C  0900               	iorlw	0
  3994   00284E  B4D8               	btfsc	status,2,c
  3995   002850  EF2C  F014         	goto	i2u108_41
  3996   002854  EF2E  F014         	goto	i2u108_40
  3997   002858                     i2u108_41:
  3998   002858  EF40  F014         	goto	i2l2407
  3999   00285C                     i2u108_40:
  4000   00285C  EC0E  F018         	call	_I2C1_IsNack	;wreg free
  4001   002860  0900               	iorlw	0
  4002   002862  B4D8               	btfsc	status,2,c
  4003   002864  EF36  F014         	goto	i2u109_41
  4004   002868  EF38  F014         	goto	i2u109_40
  4005   00286C                     i2u109_41:
  4006   00286C  EF40  F014         	goto	i2l2407
  4007   002870                     i2u109_40:
  4008   002870                     
  4009                           ;mcc_generated_files/i2c_host/src/i2c1.c: 264:     {;mcc_generated_files/i2c_host/src/i2
      +                          c1.c: 265:         i2c1Status.errorState = I2C_ERROR_ADDR_NACK;
  4010   002870  0E01               	movlw	1
  4011   002872  6E39               	movwf	(_i2c1Status+12)^(0+1280),c	;volatile
  4012   002874                     
  4013                           ;mcc_generated_files/i2c_host/src/i2c1.c: 266:         I2C1ERRbits.NACKIF = 0;
  4014   002874  0102               	movlb	2	; () banked
  4015   002876  9997               	bcf	151,4,b	;volatile
  4016   002878                     i2l2405:
  4017                           
  4018                           ; BSR set to: 2
  4019                           ;mcc_generated_files/i2c_host/src/i2c1.c: 267:         I2C1_StopSend();
  4020   002878  EC7E  F017         	call	_I2C1_StopSend	;wreg free
  4021                           
  4022                           ;mcc_generated_files/i2c_host/src/i2c1.c: 268:     }
  4023   00287C  EF6C  F014         	goto	i2l2423
  4024   002880                     i2l2407:
  4025   002880  EC19  F018         	call	_I2C1_IsData	;wreg free
  4026   002884  0900               	iorlw	0
  4027   002886  B4D8               	btfsc	status,2,c
  4028   002888  EF48  F014         	goto	i2u110_41
  4029   00288C  EF4A  F014         	goto	i2u110_40
  4030   002890                     i2u110_41:
  4031   002890  EF5A  F014         	goto	i2l2417
  4032   002894                     i2u110_40:
  4033   002894  EC0E  F018         	call	_I2C1_IsNack	;wreg free
  4034   002898  0900               	iorlw	0
  4035   00289A  B4D8               	btfsc	status,2,c
  4036   00289C  EF52  F014         	goto	i2u111_41
  4037   0028A0  EF54  F014         	goto	i2u111_40
  4038   0028A4                     i2u111_41:
  4039   0028A4  EF5A  F014         	goto	i2l2417
  4040   0028A8                     i2u111_40:
  4041   0028A8                     
  4042                           ;mcc_generated_files/i2c_host/src/i2c1.c: 270:     {;mcc_generated_files/i2c_host/src/i2
      +                          c1.c: 271:         i2c1Status.errorState = I2C_ERROR_DATA_NACK;
  4043   0028A8  0E02               	movlw	2
  4044   0028AA  6E39               	movwf	(_i2c1Status+12)^(0+1280),c	;volatile
  4045   0028AC                     
  4046                           ;mcc_generated_files/i2c_host/src/i2c1.c: 272:         I2C1ERRbits.NACKIF = 0;
  4047   0028AC  0102               	movlb	2	; () banked
  4048   0028AE  9997               	bcf	151,4,b	;volatile
  4049   0028B0  EF3C  F014         	goto	i2l2405
  4050   0028B4                     i2l2417:
  4051   0028B4  EC24  F018         	call	_I2C1_IsBusTimeOut	;wreg free
  4052   0028B8  0900               	iorlw	0
  4053   0028BA  B4D8               	btfsc	status,2,c
  4054   0028BC  EF62  F014         	goto	i2u112_41
  4055   0028C0  EF64  F014         	goto	i2u112_40
  4056   0028C4                     i2u112_41:
  4057   0028C4  EF6A  F014         	goto	i2l165
  4058   0028C8                     i2u112_40:
  4059   0028C8                     
  4060                           ;mcc_generated_files/i2c_host/src/i2c1.c: 276:     {;mcc_generated_files/i2c_host/src/i2
      +                          c1.c: 277:         i2c1Status.errorState = I2C_ERROR_BUS_COLLISION;
  4061   0028C8  0E03               	movlw	3
  4062   0028CA  6E39               	movwf	(_i2c1Status+12)^(0+1280),c	;volatile
  4063   0028CC                     
  4064                           ;mcc_generated_files/i2c_host/src/i2c1.c: 278:         I2C1ERRbits.BTOIF = 0;
  4065   0028CC  0102               	movlb	2	; () banked
  4066   0028CE  9D97               	bcf	151,6,b	;volatile
  4067                           
  4068                           ;mcc_generated_files/i2c_host/src/i2c1.c: 279:     }
  4069   0028D0  EF6C  F014         	goto	i2l2423
  4070   0028D4                     i2l165:
  4071                           
  4072                           ;mcc_generated_files/i2c_host/src/i2c1.c: 281:     {;mcc_generated_files/i2c_host/src/i2
      +                          c1.c: 282:         I2C1ERRbits.NACKIF = 0;
  4073   0028D4  0102               	movlb	2	; () banked
  4074   0028D6  9997               	bcf	151,4,b	;volatile
  4075   0028D8                     i2l2423:
  4076                           
  4077                           ;mcc_generated_files/i2c_host/src/i2c1.c: 285:     if (i2c1Status.errorState != I2C_ERRO
      +                          R_NONE)
  4078   0028D8  5039               	movf	(_i2c1Status+12)^(0+1280),w,c	;volatile
  4079   0028DA  B4D8               	btfsc	status,2,c
  4080   0028DC  EF72  F014         	goto	i2u113_41
  4081   0028E0  EF74  F014         	goto	i2u113_40
  4082   0028E4                     i2u113_41:
  4083   0028E4  EF81  F014         	goto	i2l168
  4084   0028E8                     i2u113_40:
  4085   0028E8                     
  4086                           ;mcc_generated_files/i2c_host/src/i2c1.c: 286:     {;mcc_generated_files/i2c_host/src/i2
      +                          c1.c: 287:         I2C1_Callback();
  4087   0028E8  D802               	call	i2u114_48
  4088   0028EA  EF81  F014         	goto	i2u114_49
  4089   0028EE                     i2u114_48:
  4090   0028EE  0005               	push	
  4091   0028F0  6EFA               	movwf	pclath,c
  4092   0028F2  504C               	movf	_I2C1_Callback^(0+1280),w,c
  4093   0028F4  6EFD               	movwf	tosl,c
  4094   0028F6  504D               	movf	(_I2C1_Callback+1)^(0+1280),w,c
  4095   0028F8  6EFE               	movwf	tosh,c
  4096   0028FA  504E               	movf	(_I2C1_Callback+2)^(0+1280),w,c
  4097   0028FC  6EFF               	movwf	tosu,c
  4098   0028FE  50FA               	movf	pclath,w,c
  4099   002900  0012               	return		;indir
  4100   002902                     i2u114_49:
  4101   002902                     i2l168:
  4102   002902  0012               	return		;funcret
  4103   002904                     __end_of_I2C1_ERROR_ISR:
  4104                           	callstack 0
  4105                           
  4106 ;; *************** function _I2C1_StopSend *****************
  4107 ;; Defined at:
  4108 ;;		line 415 in file "mcc_generated_files/i2c_host/src/i2c1.c"
  4109 ;; Parameters:    Size  Location     Type
  4110 ;;		None
  4111 ;; Auto vars:     Size  Location     Type
  4112 ;;		None
  4113 ;; Return value:  Size  Location     Type
  4114 ;;                  1    wreg      void 
  4115 ;; Registers used:
  4116 ;;		wreg, status,2, cstack
  4117 ;; Tracked objects:
  4118 ;;		On entry : 0/0
  4119 ;;		On exit  : 0/0
  4120 ;;		Unchanged: 0/0
  4121 ;; Data sizes:     COMRAM   BANK5   BANK6   BANK7   BANK8   BANK9  BANK10  BANK11  BANK12  BANK13  BANK14  BANK15  BANK1
      +6  BANK17  BANK18  BANK19  BANK20  BANK21  BANK22  BANK23  BANK24  BANK25  BANK26  BANK27  BANK28  BANK29  BANK30  BANK3
      +1  BANK32  BANK33  BANK34  BANK35  BANK36
  4122 ;;      Params:         0       0       0       0       0       0       0       0       0       0       0       0       
      +0       0       0       0       0       0       0       0       0       0       0       0       0       0       0       
      +0       0       0       0       0       0
  4123 ;;      Locals:         0       0       0       0       0       0       0       0       0       0       0       0       
      +0       0       0       0       0       0       0       0       0       0       0       0       0       0       0       
      +0       0       0       0       0       0
  4124 ;;      Temps:          0       0       0       0       0       0       0       0       0       0       0       0       
      +0       0       0       0       0       0       0       0       0       0       0       0       0       0       0       
      +0       0       0       0       0       0
  4125 ;;      Totals:         0       0       0       0       0       0       0       0       0       0       0       0       
      +0       0       0       0       0       0       0       0       0       0       0       0       0       0       0       
      +0       0       0       0       0       0
  4126 ;;Total ram usage:        0 bytes
  4127 ;; Hardware stack levels used: 1
  4128 ;; Hardware stack levels required when called: 1
  4129 ;; This function calls:
  4130 ;;		_I2C1_CounterGet
  4131 ;;		_I2C1_DataTransmit
  4132 ;;		_I2C1_RestartDisable
  4133 ;;		i2_I2C1_CounterSet
  4134 ;; This function is called by:
  4135 ;;		_I2C1_ISR
  4136 ;;		_I2C1_ERROR_ISR
  4137 ;; This function uses a non-reentrant model
  4138 ;;
  4139                           
  4140                           	psect	text39
  4141   002EFC                     __ptext39:
  4142                           	callstack 0
  4143   002EFC                     _I2C1_StopSend:
  4144                           	callstack 117
  4145   002EFC                     
  4146                           ;mcc_generated_files/i2c_host/src/i2c1.c: 417:     I2C1_RestartDisable();
  4147   002EFC  ECBE  F018         	call	_I2C1_RestartDisable	;wreg free
  4148   002F00                     
  4149                           ;mcc_generated_files/i2c_host/src/i2c1.c: 418:     if (I2C1_CounterGet())
  4150   002F00  ECC1  F018         	call	_I2C1_CounterGet	;wreg free
  4151   002F04  0900               	iorlw	0
  4152   002F06  B4D8               	btfsc	status,2,c
  4153   002F08  EF88  F017         	goto	i2u97_41
  4154   002F0C  EF8A  F017         	goto	i2u97_40
  4155   002F10                     i2u97_41:
  4156   002F10  EF90  F017         	goto	i2l220
  4157   002F14                     i2u97_40:
  4158   002F14                     
  4159                           ;mcc_generated_files/i2c_host/src/i2c1.c: 419:     {;mcc_generated_files/i2c_host/src/i2
      +                          c1.c: 420:         I2C1_CounterSet(0);
  4160   002F14  0E00               	movlw	0
  4161   002F16  ECA6  F018         	call	i2_I2C1_CounterSet
  4162                           
  4163                           ;mcc_generated_files/i2c_host/src/i2c1.c: 421:         I2C1_DataTransmit(0);
  4164   002F1A  0E00               	movlw	0
  4165   002F1C  ECAA  F018         	call	_I2C1_DataTransmit
  4166   002F20                     i2l220:
  4167   002F20  0012               	return		;funcret
  4168   002F22                     __end_of_I2C1_StopSend:
  4169                           	callstack 0
  4170                           
  4171 ;; *************** function i2_I2C1_CounterSet *****************
  4172 ;; Defined at:
  4173 ;;		line 369 in file "mcc_generated_files/i2c_host/src/i2c1.c"
  4174 ;; Parameters:    Size  Location     Type
  4175 ;;  counter         1    wreg     unsigned char 
  4176 ;; Auto vars:     Size  Location     Type
  4177 ;;  counter         1    0[COMRAM] unsigned char 
  4178 ;; Return value:  Size  Location     Type
  4179 ;;                  1    wreg      void 
  4180 ;; Registers used:
  4181 ;;		wreg
  4182 ;; Tracked objects:
  4183 ;;		On entry : 0/0
  4184 ;;		On exit  : 0/0
  4185 ;;		Unchanged: 0/0
  4186 ;; Data sizes:     COMRAM   BANK5   BANK6   BANK7   BANK8   BANK9  BANK10  BANK11  BANK12  BANK13  BANK14  BANK15  BANK1
      +6  BANK17  BANK18  BANK19  BANK20  BANK21  BANK22  BANK23  BANK24  BANK25  BANK26  BANK27  BANK28  BANK29  BANK30  BANK3
      +1  BANK32  BANK33  BANK34  BANK35  BANK36
  4187 ;;      Params:         0       0       0       0       0       0       0       0       0       0       0       0       
      +0       0       0       0       0       0       0       0       0       0       0       0       0       0       0       
      +0       0       0       0       0       0
  4188 ;;      Locals:         1       0       0       0       0       0       0       0       0       0       0       0       
      +0       0       0       0       0       0       0       0       0       0       0       0       0       0       0       
      +0       0       0       0       0       0
  4189 ;;      Temps:          0       0       0       0       0       0       0       0       0       0       0       0       
      +0       0       0       0       0       0       0       0       0       0       0       0       0       0       0       
      +0       0       0       0       0       0
  4190 ;;      Totals:         1       0       0       0       0       0       0       0       0       0       0       0       
      +0       0       0       0       0       0       0       0       0       0       0       0       0       0       0       
      +0       0       0       0       0       0
  4191 ;;Total ram usage:        1 bytes
  4192 ;; Hardware stack levels used: 1
  4193 ;; This function calls:
  4194 ;;		Nothing
  4195 ;; This function is called by:
  4196 ;;		_I2C1_ReadStart
  4197 ;;		_I2C1_StopSend
  4198 ;; This function uses a non-reentrant model
  4199 ;;
  4200                           
  4201                           	psect	text40
  4202   00314C                     __ptext40:
  4203                           	callstack 0
  4204   00314C                     i2_I2C1_CounterSet:
  4205                           	callstack 117
  4206                           
  4207                           ;incstack = 0
  4208                           ;i2I2C1_CounterSet@counter stored from wreg
  4209   00314C  6E01               	movwf	i2I2C1_CounterSet@counter^(0+1280),c
  4210   00314E                     
  4211                           ;mcc_generated_files/i2c_host/src/i2c1.c: 369: static void I2C1_CounterSet(uint8_t count
      +                          er);mcc_generated_files/i2c_host/src/i2c1.c: 370: {;mcc_generated_files/i2c_host/src/i2c
      +                          1.c: 371:     I2C1CNT = counter;
  4212   00314E  C501  F28D         	movff	i2I2C1_CounterSet@counter,653	;volatile
  4213   003152  0012               	return		;funcret
  4214   003154                     __end_ofi2_I2C1_CounterSet:
  4215                           	callstack 0
  4216                           
  4217 ;; *************** function _I2C1_RestartDisable *****************
  4218 ;; Defined at:
  4219 ;;		line 410 in file "mcc_generated_files/i2c_host/src/i2c1.c"
  4220 ;; Parameters:    Size  Location     Type
  4221 ;;		None
  4222 ;; Auto vars:     Size  Location     Type
  4223 ;;		None
  4224 ;; Return value:  Size  Location     Type
  4225 ;;                  1    wreg      void 
  4226 ;; Registers used:
  4227 ;;		None
  4228 ;; Tracked objects:
  4229 ;;		On entry : 0/0
  4230 ;;		On exit  : 0/0
  4231 ;;		Unchanged: 0/0
  4232 ;; Data sizes:     COMRAM   BANK5   BANK6   BANK7   BANK8   BANK9  BANK10  BANK11  BANK12  BANK13  BANK14  BANK15  BANK1
      +6  BANK17  BANK18  BANK19  BANK20  BANK21  BANK22  BANK23  BANK24  BANK25  BANK26  BANK27  BANK28  BANK29  BANK30  BANK3
      +1  BANK32  BANK33  BANK34  BANK35  BANK36
  4233 ;;      Params:         0       0       0       0       0       0       0       0       0       0       0       0       
      +0       0       0       0       0       0       0       0       0       0       0       0       0       0       0       
      +0       0       0       0       0       0
  4234 ;;      Locals:         0       0       0       0       0       0       0       0       0       0       0       0       
      +0       0       0       0       0       0       0       0       0       0       0       0       0       0       0       
      +0       0       0       0       0       0
  4235 ;;      Temps:          0       0       0       0       0       0       0       0       0       0       0       0       
      +0       0       0       0       0       0       0       0       0       0       0       0       0       0       0       
      +0       0       0       0       0       0
  4236 ;;      Totals:         0       0       0       0       0       0       0       0       0       0       0       0       
      +0       0       0       0       0       0       0       0       0       0       0       0       0       0       0       
      +0       0       0       0       0       0
  4237 ;;Total ram usage:        0 bytes
  4238 ;; Hardware stack levels used: 1
  4239 ;; This function calls:
  4240 ;;		Nothing
  4241 ;; This function is called by:
  4242 ;;		_I2C1_ISR
  4243 ;;		_I2C1_StopSend
  4244 ;; This function uses a non-reentrant model
  4245 ;;
  4246                           
  4247                           	psect	text41
  4248   00317C                     __ptext41:
  4249                           	callstack 0
  4250   00317C                     _I2C1_RestartDisable:
  4251                           	callstack 117
  4252   00317C                     
  4253                           ;mcc_generated_files/i2c_host/src/i2c1.c: 412:     I2C1CON0bits.RSEN = 0;
  4254   00317C  0102               	movlb	2	; () banked
  4255   00317E  9D94               	bcf	148,6,b	;volatile
  4256   003180                     
  4257                           ; BSR set to: 2
  4258   003180  0012               	return		;funcret
  4259   003182                     __end_of_I2C1_RestartDisable:
  4260                           	callstack 0
  4261                           
  4262 ;; *************** function _I2C1_DataTransmit *****************
  4263 ;; Defined at:
  4264 ;;		line 359 in file "mcc_generated_files/i2c_host/src/i2c1.c"
  4265 ;; Parameters:    Size  Location     Type
  4266 ;;  data            1    wreg     unsigned char 
  4267 ;; Auto vars:     Size  Location     Type
  4268 ;;  data            1    0[COMRAM] unsigned char 
  4269 ;; Return value:  Size  Location     Type
  4270 ;;                  1    wreg      void 
  4271 ;; Registers used:
  4272 ;;		wreg
  4273 ;; Tracked objects:
  4274 ;;		On entry : 0/0
  4275 ;;		On exit  : 0/0
  4276 ;;		Unchanged: 0/0
  4277 ;; Data sizes:     COMRAM   BANK5   BANK6   BANK7   BANK8   BANK9  BANK10  BANK11  BANK12  BANK13  BANK14  BANK15  BANK1
      +6  BANK17  BANK18  BANK19  BANK20  BANK21  BANK22  BANK23  BANK24  BANK25  BANK26  BANK27  BANK28  BANK29  BANK30  BANK3
      +1  BANK32  BANK33  BANK34  BANK35  BANK36
  4278 ;;      Params:         0       0       0       0       0       0       0       0       0       0       0       0       
      +0       0       0       0       0       0       0       0       0       0       0       0       0       0       0       
      +0       0       0       0       0       0
  4279 ;;      Locals:         1       0       0       0       0       0       0       0       0       0       0       0       
      +0       0       0       0       0       0       0       0       0       0       0       0       0       0       0       
      +0       0       0       0       0       0
  4280 ;;      Temps:          0       0       0       0       0       0       0       0       0       0       0       0       
      +0       0       0       0       0       0       0       0       0       0       0       0       0       0       0       
      +0       0       0       0       0       0
  4281 ;;      Totals:         1       0       0       0       0       0       0       0       0       0       0       0       
      +0       0       0       0       0       0       0       0       0       0       0       0       0       0       0       
      +0       0       0       0       0       0
  4282 ;;Total ram usage:        1 bytes
  4283 ;; Hardware stack levels used: 1
  4284 ;; This function calls:
  4285 ;;		Nothing
  4286 ;; This function is called by:
  4287 ;;		_I2C1_TX_ISR
  4288 ;;		_I2C1_StopSend
  4289 ;; This function uses a non-reentrant model
  4290 ;;
  4291                           
  4292                           	psect	text42
  4293   003154                     __ptext42:
  4294                           	callstack 0
  4295   003154                     _I2C1_DataTransmit:
  4296                           	callstack 118
  4297                           
  4298                           ; BSR set to: 2
  4299                           ;incstack = 0
  4300                           ;I2C1_DataTransmit@data stored from wreg
  4301   003154  6E01               	movwf	I2C1_DataTransmit@data^(0+1280),c
  4302   003156                     
  4303                           ;mcc_generated_files/i2c_host/src/i2c1.c: 359:  static void I2C1_DataTransmit(uint8_t da
      +                          ta);mcc_generated_files/i2c_host/src/i2c1.c: 360: {;mcc_generated_files/i2c_host/src/i2c
      +                          1.c: 361:     I2C1TXB = data;
  4304   003156  C501  F28C         	movff	I2C1_DataTransmit@data,652	;volatile
  4305   00315A  0012               	return		;funcret
  4306   00315C                     __end_of_I2C1_DataTransmit:
  4307                           	callstack 0
  4308                           
  4309 ;; *************** function _I2C1_CounterGet *****************
  4310 ;; Defined at:
  4311 ;;		line 374 in file "mcc_generated_files/i2c_host/src/i2c1.c"
  4312 ;; Parameters:    Size  Location     Type
  4313 ;;		None
  4314 ;; Auto vars:     Size  Location     Type
  4315 ;;		None
  4316 ;; Return value:  Size  Location     Type
  4317 ;;                  1    wreg      unsigned char 
  4318 ;; Registers used:
  4319 ;;		wreg, status,2
  4320 ;; Tracked objects:
  4321 ;;		On entry : 0/0
  4322 ;;		On exit  : 0/0
  4323 ;;		Unchanged: 0/0
  4324 ;; Data sizes:     COMRAM   BANK5   BANK6   BANK7   BANK8   BANK9  BANK10  BANK11  BANK12  BANK13  BANK14  BANK15  BANK1
      +6  BANK17  BANK18  BANK19  BANK20  BANK21  BANK22  BANK23  BANK24  BANK25  BANK26  BANK27  BANK28  BANK29  BANK30  BANK3
      +1  BANK32  BANK33  BANK34  BANK35  BANK36
  4325 ;;      Params:         0       0       0       0       0       0       0       0       0       0       0       0       
      +0       0       0       0       0       0       0       0       0       0       0       0       0       0       0       
      +0       0       0       0       0       0
  4326 ;;      Locals:         0       0       0       0       0       0       0       0       0       0       0       0       
      +0       0       0       0       0       0       0       0       0       0       0       0       0       0       0       
      +0       0       0       0       0       0
  4327 ;;      Temps:          0       0       0       0       0       0       0       0       0       0       0       0       
      +0       0       0       0       0       0       0       0       0       0       0       0       0       0       0       
      +0       0       0       0       0       0
  4328 ;;      Totals:         0       0       0       0       0       0       0       0       0       0       0       0       
      +0       0       0       0       0       0       0       0       0       0       0       0       0       0       0       
      +0       0       0       0       0       0
  4329 ;;Total ram usage:        0 bytes
  4330 ;; Hardware stack levels used: 1
  4331 ;; This function calls:
  4332 ;;		Nothing
  4333 ;; This function is called by:
  4334 ;;		_I2C1_StopSend
  4335 ;; This function uses a non-reentrant model
  4336 ;;
  4337                           
  4338                           	psect	text43
  4339   003182                     __ptext43:
  4340                           	callstack 0
  4341   003182                     _I2C1_CounterGet:
  4342                           	callstack 117
  4343   003182                     
  4344                           ;mcc_generated_files/i2c_host/src/i2c1.c: 376:     return (uint8_t) I2C1CNT;
  4345   003182  0102               	movlb	2	; () banked
  4346   003184  518D               	movf	141,w,b	;volatile
  4347   003186                     
  4348                           ; BSR set to: 2
  4349   003186  0012               	return		;funcret
  4350   003188                     __end_of_I2C1_CounterGet:
  4351                           	callstack 0
  4352                           
  4353 ;; *************** function _I2C1_IsNack *****************
  4354 ;; Defined at:
  4355 ;;		line 425 in file "mcc_generated_files/i2c_host/src/i2c1.c"
  4356 ;; Parameters:    Size  Location     Type
  4357 ;;		None
  4358 ;; Auto vars:     Size  Location     Type
  4359 ;;		None
  4360 ;; Return value:  Size  Location     Type
  4361 ;;                  1    wreg      _Bool 
  4362 ;; Registers used:
  4363 ;;		wreg
  4364 ;; Tracked objects:
  4365 ;;		On entry : 0/0
  4366 ;;		On exit  : 0/0
  4367 ;;		Unchanged: 0/0
  4368 ;; Data sizes:     COMRAM   BANK5   BANK6   BANK7   BANK8   BANK9  BANK10  BANK11  BANK12  BANK13  BANK14  BANK15  BANK1
      +6  BANK17  BANK18  BANK19  BANK20  BANK21  BANK22  BANK23  BANK24  BANK25  BANK26  BANK27  BANK28  BANK29  BANK30  BANK3
      +1  BANK32  BANK33  BANK34  BANK35  BANK36
  4369 ;;      Params:         0       0       0       0       0       0       0       0       0       0       0       0       
      +0       0       0       0       0       0       0       0       0       0       0       0       0       0       0       
      +0       0       0       0       0       0
  4370 ;;      Locals:         0       0       0       0       0       0       0       0       0       0       0       0       
      +0       0       0       0       0       0       0       0       0       0       0       0       0       0       0       
      +0       0       0       0       0       0
  4371 ;;      Temps:          0       0       0       0       0       0       0       0       0       0       0       0       
      +0       0       0       0       0       0       0       0       0       0       0       0       0       0       0       
      +0       0       0       0       0       0
  4372 ;;      Totals:         0       0       0       0       0       0       0       0       0       0       0       0       
      +0       0       0       0       0       0       0       0       0       0       0       0       0       0       0       
      +0       0       0       0       0       0
  4373 ;;Total ram usage:        0 bytes
  4374 ;; Hardware stack levels used: 1
  4375 ;; This function calls:
  4376 ;;		Nothing
  4377 ;; This function is called by:
  4378 ;;		_I2C1_ERROR_ISR
  4379 ;; This function uses a non-reentrant model
  4380 ;;
  4381                           
  4382                           	psect	text44
  4383   00301C                     __ptext44:
  4384                           	callstack 0
  4385   00301C                     _I2C1_IsNack:
  4386                           	callstack 118
  4387   00301C                     
  4388                           ;mcc_generated_files/i2c_host/src/i2c1.c: 427:     return I2C1CON1bits.ACKSTAT;
  4389   00301C  0102               	movlb	2	; () banked
  4390   00301E  BB95               	btfsc	149,5,b	;volatile
  4391   003020  EF14  F018         	goto	i2u27_41
  4392   003024  EF17  F018         	goto	i2u27_40
  4393   003028                     i2u27_41:
  4394   003028  0E01               	movlw	1
  4395   00302A  EF18  F018         	goto	i2u27_46
  4396   00302E                     i2u27_40:
  4397   00302E  0E00               	movlw	0
  4398   003030                     i2u27_46:
  4399   003030                     
  4400                           ; BSR set to: 2
  4401   003030  0012               	return		;funcret
  4402   003032                     __end_of_I2C1_IsNack:
  4403                           	callstack 0
  4404                           
  4405 ;; *************** function _I2C1_IsData *****************
  4406 ;; Defined at:
  4407 ;;		line 440 in file "mcc_generated_files/i2c_host/src/i2c1.c"
  4408 ;; Parameters:    Size  Location     Type
  4409 ;;		None
  4410 ;; Auto vars:     Size  Location     Type
  4411 ;;		None
  4412 ;; Return value:  Size  Location     Type
  4413 ;;                  1    wreg      _Bool 
  4414 ;; Registers used:
  4415 ;;		wreg
  4416 ;; Tracked objects:
  4417 ;;		On entry : 0/0
  4418 ;;		On exit  : 0/0
  4419 ;;		Unchanged: 0/0
  4420 ;; Data sizes:     COMRAM   BANK5   BANK6   BANK7   BANK8   BANK9  BANK10  BANK11  BANK12  BANK13  BANK14  BANK15  BANK1
      +6  BANK17  BANK18  BANK19  BANK20  BANK21  BANK22  BANK23  BANK24  BANK25  BANK26  BANK27  BANK28  BANK29  BANK30  BANK3
      +1  BANK32  BANK33  BANK34  BANK35  BANK36
  4421 ;;      Params:         0       0       0       0       0       0       0       0       0       0       0       0       
      +0       0       0       0       0       0       0       0       0       0       0       0       0       0       0       
      +0       0       0       0       0       0
  4422 ;;      Locals:         0       0       0       0       0       0       0       0       0       0       0       0       
      +0       0       0       0       0       0       0       0       0       0       0       0       0       0       0       
      +0       0       0       0       0       0
  4423 ;;      Temps:          0       0       0       0       0       0       0       0       0       0       0       0       
      +0       0       0       0       0       0       0       0       0       0       0       0       0       0       0       
      +0       0       0       0       0       0
  4424 ;;      Totals:         0       0       0       0       0       0       0       0       0       0       0       0       
      +0       0       0       0       0       0       0       0       0       0       0       0       0       0       0       
      +0       0       0       0       0       0
  4425 ;;Total ram usage:        0 bytes
  4426 ;; Hardware stack levels used: 1
  4427 ;; This function calls:
  4428 ;;		Nothing
  4429 ;; This function is called by:
  4430 ;;		_I2C1_ERROR_ISR
  4431 ;; This function uses a non-reentrant model
  4432 ;;
  4433                           
  4434                           	psect	text45
  4435   003032                     __ptext45:
  4436                           	callstack 0
  4437   003032                     _I2C1_IsData:
  4438                           	callstack 118
  4439   003032                     
  4440                           ;mcc_generated_files/i2c_host/src/i2c1.c: 442:     return I2C1STAT0bits.D;
  4441   003032  0102               	movlb	2	; () banked
  4442   003034  B798               	btfsc	152,3,b	;volatile
  4443   003036  EF1F  F018         	goto	i2u28_41
  4444   00303A  EF22  F018         	goto	i2u28_40
  4445   00303E                     i2u28_41:
  4446   00303E  0E01               	movlw	1
  4447   003040  EF23  F018         	goto	i2u28_46
  4448   003044                     i2u28_40:
  4449   003044  0E00               	movlw	0
  4450   003046                     i2u28_46:
  4451   003046                     
  4452                           ; BSR set to: 2
  4453   003046  0012               	return		;funcret
  4454   003048                     __end_of_I2C1_IsData:
  4455                           	callstack 0
  4456                           
  4457 ;; *************** function _I2C1_IsBusTimeOut *****************
  4458 ;; Defined at:
  4459 ;;		line 435 in file "mcc_generated_files/i2c_host/src/i2c1.c"
  4460 ;; Parameters:    Size  Location     Type
  4461 ;;		None
  4462 ;; Auto vars:     Size  Location     Type
  4463 ;;		None
  4464 ;; Return value:  Size  Location     Type
  4465 ;;                  1    wreg      _Bool 
  4466 ;; Registers used:
  4467 ;;		wreg
  4468 ;; Tracked objects:
  4469 ;;		On entry : 0/0
  4470 ;;		On exit  : 0/0
  4471 ;;		Unchanged: 0/0
  4472 ;; Data sizes:     COMRAM   BANK5   BANK6   BANK7   BANK8   BANK9  BANK10  BANK11  BANK12  BANK13  BANK14  BANK15  BANK1
      +6  BANK17  BANK18  BANK19  BANK20  BANK21  BANK22  BANK23  BANK24  BANK25  BANK26  BANK27  BANK28  BANK29  BANK30  BANK3
      +1  BANK32  BANK33  BANK34  BANK35  BANK36
  4473 ;;      Params:         0       0       0       0       0       0       0       0       0       0       0       0       
      +0       0       0       0       0       0       0       0       0       0       0       0       0       0       0       
      +0       0       0       0       0       0
  4474 ;;      Locals:         0       0       0       0       0       0       0       0       0       0       0       0       
      +0       0       0       0       0       0       0       0       0       0       0       0       0       0       0       
      +0       0       0       0       0       0
  4475 ;;      Temps:          0       0       0       0       0       0       0       0       0       0       0       0       
      +0       0       0       0       0       0       0       0       0       0       0       0       0       0       0       
      +0       0       0       0       0       0
  4476 ;;      Totals:         0       0       0       0       0       0       0       0       0       0       0       0       
      +0       0       0       0       0       0       0       0       0       0       0       0       0       0       0       
      +0       0       0       0       0       0
  4477 ;;Total ram usage:        0 bytes
  4478 ;; Hardware stack levels used: 1
  4479 ;; This function calls:
  4480 ;;		Nothing
  4481 ;; This function is called by:
  4482 ;;		_I2C1_ERROR_ISR
  4483 ;; This function uses a non-reentrant model
  4484 ;;
  4485                           
  4486                           	psect	text46
  4487   003048                     __ptext46:
  4488                           	callstack 0
  4489   003048                     _I2C1_IsBusTimeOut:
  4490                           	callstack 118
  4491   003048                     
  4492                           ;mcc_generated_files/i2c_host/src/i2c1.c: 437:     return I2C1ERRbits.BTOIF;
  4493   003048  0102               	movlb	2	; () banked
  4494   00304A  BD97               	btfsc	151,6,b	;volatile
  4495   00304C  EF2A  F018         	goto	i2u29_41
  4496   003050  EF2D  F018         	goto	i2u29_40
  4497   003054                     i2u29_41:
  4498   003054  0E01               	movlw	1
  4499   003056  EF2E  F018         	goto	i2u29_46
  4500   00305A                     i2u29_40:
  4501   00305A  0E00               	movlw	0
  4502   00305C                     i2u29_46:
  4503   00305C                     
  4504                           ; BSR set to: 2
  4505   00305C  0012               	return		;funcret
  4506   00305E                     __end_of_I2C1_IsBusTimeOut:
  4507                           	callstack 0
  4508                           
  4509 ;; *************** function _I2C1_IsBusCol *****************
  4510 ;; Defined at:
  4511 ;;		line 430 in file "mcc_generated_files/i2c_host/src/i2c1.c"
  4512 ;; Parameters:    Size  Location     Type
  4513 ;;		None
  4514 ;; Auto vars:     Size  Location     Type
  4515 ;;		None
  4516 ;; Return value:  Size  Location     Type
  4517 ;;                  1    wreg      _Bool 
  4518 ;; Registers used:
  4519 ;;		wreg
  4520 ;; Tracked objects:
  4521 ;;		On entry : 0/0
  4522 ;;		On exit  : 0/0
  4523 ;;		Unchanged: 0/0
  4524 ;; Data sizes:     COMRAM   BANK5   BANK6   BANK7   BANK8   BANK9  BANK10  BANK11  BANK12  BANK13  BANK14  BANK15  BANK1
      +6  BANK17  BANK18  BANK19  BANK20  BANK21  BANK22  BANK23  BANK24  BANK25  BANK26  BANK27  BANK28  BANK29  BANK30  BANK3
      +1  BANK32  BANK33  BANK34  BANK35  BANK36
  4525 ;;      Params:         0       0       0       0       0       0       0       0       0       0       0       0       
      +0       0       0       0       0       0       0       0       0       0       0       0       0       0       0       
      +0       0       0       0       0       0
  4526 ;;      Locals:         0       0       0       0       0       0       0       0       0       0       0       0       
      +0       0       0       0       0       0       0       0       0       0       0       0       0       0       0       
      +0       0       0       0       0       0
  4527 ;;      Temps:          0       0       0       0       0       0       0       0       0       0       0       0       
      +0       0       0       0       0       0       0       0       0       0       0       0       0       0       0       
      +0       0       0       0       0       0
  4528 ;;      Totals:         0       0       0       0       0       0       0       0       0       0       0       0       
      +0       0       0       0       0       0       0       0       0       0       0       0       0       0       0       
      +0       0       0       0       0       0
  4529 ;;Total ram usage:        0 bytes
  4530 ;; Hardware stack levels used: 1
  4531 ;; This function calls:
  4532 ;;		Nothing
  4533 ;; This function is called by:
  4534 ;;		_I2C1_ERROR_ISR
  4535 ;; This function uses a non-reentrant model
  4536 ;;
  4537                           
  4538                           	psect	text47
  4539   00305E                     __ptext47:
  4540                           	callstack 0
  4541   00305E                     _I2C1_IsBusCol:
  4542                           	callstack 118
  4543   00305E                     
  4544                           ;mcc_generated_files/i2c_host/src/i2c1.c: 432:     return I2C1ERRbits.BCLIF;
  4545   00305E  0102               	movlb	2	; () banked
  4546   003060  BB97               	btfsc	151,5,b	;volatile
  4547   003062  EF35  F018         	goto	i2u24_41
  4548   003066  EF38  F018         	goto	i2u24_40
  4549   00306A                     i2u24_41:
  4550   00306A  0E01               	movlw	1
  4551   00306C  EF39  F018         	goto	i2u24_46
  4552   003070                     i2u24_40:
  4553   003070  0E00               	movlw	0
  4554   003072                     i2u24_46:
  4555   003072                     
  4556                           ; BSR set to: 2
  4557   003072  0012               	return		;funcret
  4558   003074                     __end_of_I2C1_IsBusCol:
  4559                           	callstack 0
  4560                           
  4561 ;; *************** function _I2C1_IsAddr *****************
  4562 ;; Defined at:
  4563 ;;		line 445 in file "mcc_generated_files/i2c_host/src/i2c1.c"
  4564 ;; Parameters:    Size  Location     Type
  4565 ;;		None
  4566 ;; Auto vars:     Size  Location     Type
  4567 ;;		None
  4568 ;; Return value:  Size  Location     Type
  4569 ;;                  1    wreg      _Bool 
  4570 ;; Registers used:
  4571 ;;		wreg
  4572 ;; Tracked objects:
  4573 ;;		On entry : 0/0
  4574 ;;		On exit  : 0/0
  4575 ;;		Unchanged: 0/0
  4576 ;; Data sizes:     COMRAM   BANK5   BANK6   BANK7   BANK8   BANK9  BANK10  BANK11  BANK12  BANK13  BANK14  BANK15  BANK1
      +6  BANK17  BANK18  BANK19  BANK20  BANK21  BANK22  BANK23  BANK24  BANK25  BANK26  BANK27  BANK28  BANK29  BANK30  BANK3
      +1  BANK32  BANK33  BANK34  BANK35  BANK36
  4577 ;;      Params:         0       0       0       0       0       0       0       0       0       0       0       0       
      +0       0       0       0       0       0       0       0       0       0       0       0       0       0       0       
      +0       0       0       0       0       0
  4578 ;;      Locals:         0       0       0       0       0       0       0       0       0       0       0       0       
      +0       0       0       0       0       0       0       0       0       0       0       0       0       0       0       
      +0       0       0       0       0       0
  4579 ;;      Temps:          0       0       0       0       0       0       0       0       0       0       0       0       
      +0       0       0       0       0       0       0       0       0       0       0       0       0       0       0       
      +0       0       0       0       0       0
  4580 ;;      Totals:         0       0       0       0       0       0       0       0       0       0       0       0       
      +0       0       0       0       0       0       0       0       0       0       0       0       0       0       0       
      +0       0       0       0       0       0
  4581 ;;Total ram usage:        0 bytes
  4582 ;; Hardware stack levels used: 1
  4583 ;; This function calls:
  4584 ;;		Nothing
  4585 ;; This function is called by:
  4586 ;;		_I2C1_ERROR_ISR
  4587 ;; This function uses a non-reentrant model
  4588 ;;
  4589                           
  4590                           	psect	text48
  4591   003074                     __ptext48:
  4592                           	callstack 0
  4593   003074                     _I2C1_IsAddr:
  4594                           	callstack 118
  4595   003074                     
  4596                           ;mcc_generated_files/i2c_host/src/i2c1.c: 447:     return !I2C1STAT0bits.D;
  4597   003074  0102               	movlb	2	; () banked
  4598   003076  A798               	btfss	152,3,b	;volatile
  4599   003078  EF40  F018         	goto	i2u25_41
  4600   00307C  EF43  F018         	goto	i2u25_40
  4601   003080                     i2u25_41:
  4602   003080  0E01               	movlw	1
  4603   003082  EF44  F018         	goto	i2u26_40
  4604   003086                     i2u25_40:
  4605   003086  0E00               	movlw	0
  4606   003088                     i2u26_40:
  4607   003088                     
  4608                           ; BSR set to: 2
  4609   003088  0012               	return		;funcret
  4610   00308A                     __end_of_I2C1_IsAddr:
  4611                           	callstack 0
  4612                           
  4613 ;; *************** function _I2C1_DefaultCallback *****************
  4614 ;; Defined at:
  4615 ;;		line 341 in file "mcc_generated_files/i2c_host/src/i2c1.c"
  4616 ;; Parameters:    Size  Location     Type
  4617 ;;		None
  4618 ;; Auto vars:     Size  Location     Type
  4619 ;;		None
  4620 ;; Return value:  Size  Location     Type
  4621 ;;                  1    wreg      void 
  4622 ;; Registers used:
  4623 ;;		None
  4624 ;; Tracked objects:
  4625 ;;		On entry : 0/0
  4626 ;;		On exit  : 0/0
  4627 ;;		Unchanged: 0/0
  4628 ;; Data sizes:     COMRAM   BANK5   BANK6   BANK7   BANK8   BANK9  BANK10  BANK11  BANK12  BANK13  BANK14  BANK15  BANK1
      +6  BANK17  BANK18  BANK19  BANK20  BANK21  BANK22  BANK23  BANK24  BANK25  BANK26  BANK27  BANK28  BANK29  BANK30  BANK3
      +1  BANK32  BANK33  BANK34  BANK35  BANK36
  4629 ;;      Params:         0       0       0       0       0       0       0       0       0       0       0       0       
      +0       0       0       0       0       0       0       0       0       0       0       0       0       0       0       
      +0       0       0       0       0       0
  4630 ;;      Locals:         0       0       0       0       0       0       0       0       0       0       0       0       
      +0       0       0       0       0       0       0       0       0       0       0       0       0       0       0       
      +0       0       0       0       0       0
  4631 ;;      Temps:          0       0       0       0       0       0       0       0       0       0       0       0       
      +0       0       0       0       0       0       0       0       0       0       0       0       0       0       0       
      +0       0       0       0       0       0
  4632 ;;      Totals:         0       0       0       0       0       0       0       0       0       0       0       0       
      +0       0       0       0       0       0       0       0       0       0       0       0       0       0       0       
      +0       0       0       0       0       0
  4633 ;;Total ram usage:        0 bytes
  4634 ;; Hardware stack levels used: 1
  4635 ;; This function calls:
  4636 ;;		Nothing
  4637 ;; This function is called by:
  4638 ;;		_I2C1_Initialize
  4639 ;;		_I2C1_Deinitialize
  4640 ;;		_I2C1_ERROR_ISR
  4641 ;; This function uses a non-reentrant model
  4642 ;;
  4643                           
  4644                           	psect	text49
  4645   003188                     __ptext49:
  4646                           	callstack 0
  4647   003188                     _I2C1_DefaultCallback:
  4648                           	callstack 118
  4649   003188  0012               	return		;funcret
  4650   00318A                     __end_of_I2C1_DefaultCallback:
  4651                           	callstack 0
  4652                           
  4653 ;; *************** function _I2C1_BusReset *****************
  4654 ;; Defined at:
  4655 ;;		line 379 in file "mcc_generated_files/i2c_host/src/i2c1.c"
  4656 ;; Parameters:    Size  Location     Type
  4657 ;;		None
  4658 ;; Auto vars:     Size  Location     Type
  4659 ;;		None
  4660 ;; Return value:  Size  Location     Type
  4661 ;;                  1    wreg      void 
  4662 ;; Registers used:
  4663 ;;		wreg, status,2, cstack
  4664 ;; Tracked objects:
  4665 ;;		On entry : 0/0
  4666 ;;		On exit  : 0/0
  4667 ;;		Unchanged: 0/0
  4668 ;; Data sizes:     COMRAM   BANK5   BANK6   BANK7   BANK8   BANK9  BANK10  BANK11  BANK12  BANK13  BANK14  BANK15  BANK1
      +6  BANK17  BANK18  BANK19  BANK20  BANK21  BANK22  BANK23  BANK24  BANK25  BANK26  BANK27  BANK28  BANK29  BANK30  BANK3
      +1  BANK32  BANK33  BANK34  BANK35  BANK36
  4669 ;;      Params:         0       0       0       0       0       0       0       0       0       0       0       0       
      +0       0       0       0       0       0       0       0       0       0       0       0       0       0       0       
      +0       0       0       0       0       0
  4670 ;;      Locals:         0       0       0       0       0       0       0       0       0       0       0       0       
      +0       0       0       0       0       0       0       0       0       0       0       0       0       0       0       
      +0       0       0       0       0       0
  4671 ;;      Temps:          0       0       0       0       0       0       0       0       0       0       0       0       
      +0       0       0       0       0       0       0       0       0       0       0       0       0       0       0       
      +0       0       0       0       0       0
  4672 ;;      Totals:         0       0       0       0       0       0       0       0       0       0       0       0       
      +0       0       0       0       0       0       0       0       0       0       0       0       0       0       0       
      +0       0       0       0       0       0
  4673 ;;Total ram usage:        0 bytes
  4674 ;; Hardware stack levels used: 1
  4675 ;; Hardware stack levels required when called: 1
  4676 ;; This function calls:
  4677 ;;		_I2C1_BufferClear
  4678 ;;		_I2C1_ErrorFlagsClear
  4679 ;;		_I2C1_InterruptsClear
  4680 ;;		_I2C1_InterruptsDisable
  4681 ;;		i2_I2C1_InterruptsEnable
  4682 ;; This function is called by:
  4683 ;;		_I2C1_ERROR_ISR
  4684 ;; This function uses a non-reentrant model
  4685 ;;
  4686                           
  4687                           	psect	text50
  4688   002DE0                     __ptext50:
  4689                           	callstack 0
  4690   002DE0                     _I2C1_BusReset:
  4691                           	callstack 117
  4692   002DE0                     
  4693                           ;mcc_generated_files/i2c_host/src/i2c1.c: 381:     I2C1_InterruptsClear();
  4694   002DE0  ECAE  F018         	call	_I2C1_InterruptsClear	;wreg free
  4695   002DE4                     
  4696                           ;mcc_generated_files/i2c_host/src/i2c1.c: 382:     I2C1_ErrorFlagsClear();
  4697   002DE4  EC8C  F018         	call	_I2C1_ErrorFlagsClear	;wreg free
  4698   002DE8                     
  4699                           ;mcc_generated_files/i2c_host/src/i2c1.c: 383:     I2C1_InterruptsDisable();
  4700   002DE8  EC6D  F018         	call	_I2C1_InterruptsDisable	;wreg free
  4701   002DEC                     
  4702                           ;mcc_generated_files/i2c_host/src/i2c1.c: 384:     I2C1_BufferClear();
  4703   002DEC  EC91  F018         	call	_I2C1_BufferClear	;wreg free
  4704   002DF0                     
  4705                           ;mcc_generated_files/i2c_host/src/i2c1.c: 385:     I2C1CON0bits.EN = 0;
  4706   002DF0  0102               	movlb	2	; () banked
  4707   002DF2  9F94               	bcf	148,7,b	;volatile
  4708   002DF4                     
  4709                           ; BSR set to: 2
  4710                           ;mcc_generated_files/i2c_host/src/i2c1.c: 386:     I2C1_InterruptsEnable();
  4711   002DF4  EC63  F018         	call	i2_I2C1_InterruptsEnable	;wreg free
  4712   002DF8                     
  4713                           ;mcc_generated_files/i2c_host/src/i2c1.c: 390:     I2C1PIEbits.SCIE = 0;
  4714   002DF8  0102               	movlb	2	; () banked
  4715   002DFA  919B               	bcf	155,0,b	;volatile
  4716   002DFC                     
  4717                           ; BSR set to: 2
  4718                           ;mcc_generated_files/i2c_host/src/i2c1.c: 391:     I2C1PIEbits.PCIE = 0;
  4719   002DFC  959B               	bcf	155,2,b	;volatile
  4720   002DFE                     
  4721                           ; BSR set to: 2
  4722                           ;mcc_generated_files/i2c_host/src/i2c1.c: 392:     I2C1CON0bits.EN = 1;
  4723   002DFE  8F94               	bsf	148,7,b	;volatile
  4724   002E00                     
  4725                           ; BSR set to: 2
  4726                           ;mcc_generated_files/i2c_host/src/i2c1.c: 393:     _delay((unsigned long)((1)*(64000000/
      +                          4000000.0)));
  4727   002E00  0E05               	movlw	5
  4728   002E02                     i2u132_47:
  4729   002E02  2EE8               	decfsz	wreg,f,c
  4730   002E04  D7FE               	bra	i2u132_47
  4731   002E06  0000               	nop	
  4732   002E08                     
  4733                           ;mcc_generated_files/i2c_host/src/i2c1.c: 394:     __nop();
  4734   002E08  0000               	nop	
  4735   002E0A                     
  4736                           ;mcc_generated_files/i2c_host/src/i2c1.c: 395:     __nop();
  4737   002E0A  0000               	nop	
  4738   002E0C                     
  4739                           ;mcc_generated_files/i2c_host/src/i2c1.c: 396:     __nop();
  4740   002E0C  0000               	nop	
  4741   002E0E                     
  4742                           ;mcc_generated_files/i2c_host/src/i2c1.c: 397:     __nop();
  4743   002E0E  0000               	nop	
  4744   002E10                     
  4745                           ;mcc_generated_files/i2c_host/src/i2c1.c: 398:     __nop();
  4746   002E10  0000               	nop	
  4747   002E12                     
  4748                           ;mcc_generated_files/i2c_host/src/i2c1.c: 399:     __nop();
  4749   002E12  0000               	nop	
  4750   002E14                     
  4751                           ;mcc_generated_files/i2c_host/src/i2c1.c: 400:     I2C1PIRbits.SCIF = 0;
  4752   002E14  0102               	movlb	2	; () banked
  4753   002E16  919A               	bcf	154,0,b	;volatile
  4754   002E18                     
  4755                           ; BSR set to: 2
  4756                           ;mcc_generated_files/i2c_host/src/i2c1.c: 401:     I2C1PIRbits.PCIF = 0;
  4757   002E18  959A               	bcf	154,2,b	;volatile
  4758   002E1A                     
  4759                           ; BSR set to: 2
  4760                           ;mcc_generated_files/i2c_host/src/i2c1.c: 402:     I2C1PIEbits.PCIE = 1;
  4761   002E1A  859B               	bsf	155,2,b	;volatile
  4762   002E1C                     
  4763                           ; BSR set to: 2
  4764   002E1C  0012               	return		;funcret
  4765   002E1E                     __end_of_I2C1_BusReset:
  4766                           	callstack 0
  4767                           
  4768 ;; *************** function i2_I2C1_InterruptsEnable *****************
  4769 ;; Defined at:
  4770 ;;		line 450 in file "mcc_generated_files/i2c_host/src/i2c1.c"
  4771 ;; Parameters:    Size  Location     Type
  4772 ;;		None
  4773 ;; Auto vars:     Size  Location     Type
  4774 ;;		None
  4775 ;; Return value:  Size  Location     Type
  4776 ;;                  1    wreg      void 
  4777 ;; Registers used:
  4778 ;;		None
  4779 ;; Tracked objects:
  4780 ;;		On entry : 0/0
  4781 ;;		On exit  : 0/0
  4782 ;;		Unchanged: 0/0
  4783 ;; Data sizes:     COMRAM   BANK5   BANK6   BANK7   BANK8   BANK9  BANK10  BANK11  BANK12  BANK13  BANK14  BANK15  BANK1
      +6  BANK17  BANK18  BANK19  BANK20  BANK21  BANK22  BANK23  BANK24  BANK25  BANK26  BANK27  BANK28  BANK29  BANK30  BANK3
      +1  BANK32  BANK33  BANK34  BANK35  BANK36
  4784 ;;      Params:         0       0       0       0       0       0       0       0       0       0       0       0       
      +0       0       0       0       0       0       0       0       0       0       0       0       0       0       0       
      +0       0       0       0       0       0
  4785 ;;      Locals:         0       0       0       0       0       0       0       0       0       0       0       0       
      +0       0       0       0       0       0       0       0       0       0       0       0       0       0       0       
      +0       0       0       0       0       0
  4786 ;;      Temps:          0       0       0       0       0       0       0       0       0       0       0       0       
      +0       0       0       0       0       0       0       0       0       0       0       0       0       0       0       
      +0       0       0       0       0       0
  4787 ;;      Totals:         0       0       0       0       0       0       0       0       0       0       0       0       
      +0       0       0       0       0       0       0       0       0       0       0       0       0       0       0       
      +0       0       0       0       0       0
  4788 ;;Total ram usage:        0 bytes
  4789 ;; Hardware stack levels used: 1
  4790 ;; This function calls:
  4791 ;;		Nothing
  4792 ;; This function is called by:
  4793 ;;		_I2C1_BusReset
  4794 ;; This function uses a non-reentrant model
  4795 ;;
  4796                           
  4797                           	psect	text51
  4798   0030C6                     __ptext51:
  4799                           	callstack 0
  4800   0030C6                     i2_I2C1_InterruptsEnable:
  4801                           	callstack 117
  4802   0030C6                     
  4803                           ;mcc_generated_files/i2c_host/src/i2c1.c: 452:     PIE7bits.I2C1IE = 1;
  4804   0030C6  84A5               	bsf	165,2,c	;volatile
  4805                           
  4806                           ;mcc_generated_files/i2c_host/src/i2c1.c: 453:     PIE7bits.I2C1EIE = 1;
  4807   0030C8  86A5               	bsf	165,3,c	;volatile
  4808                           
  4809                           ;mcc_generated_files/i2c_host/src/i2c1.c: 454:     PIE7bits.I2C1RXIE = 1;
  4810   0030CA  80A5               	bsf	165,0,c	;volatile
  4811                           
  4812                           ;mcc_generated_files/i2c_host/src/i2c1.c: 455:     PIE7bits.I2C1TXIE = 1;
  4813   0030CC  82A5               	bsf	165,1,c	;volatile
  4814                           
  4815                           ;mcc_generated_files/i2c_host/src/i2c1.c: 457:     I2C1PIEbits.PCIE = 1;
  4816   0030CE  0102               	movlb	2	; () banked
  4817   0030D0  859B               	bsf	155,2,b	;volatile
  4818                           
  4819                           ;mcc_generated_files/i2c_host/src/i2c1.c: 458:     I2C1PIEbits.RSCIE = 1;
  4820   0030D2  839B               	bsf	155,1,b	;volatile
  4821                           
  4822                           ;mcc_generated_files/i2c_host/src/i2c1.c: 459:     I2C1PIEbits.CNTIE = 1;
  4823   0030D4  8F9B               	bsf	155,7,b	;volatile
  4824                           
  4825                           ;mcc_generated_files/i2c_host/src/i2c1.c: 460:     I2C1ERRbits.NACKIE = 1;
  4826   0030D6  8197               	bsf	151,0,b	;volatile
  4827   0030D8                     
  4828                           ; BSR set to: 2
  4829   0030D8  0012               	return		;funcret
  4830   0030DA                     __end_ofi2_I2C1_InterruptsEnable:
  4831                           	callstack 0
  4832                           
  4833 ;; *************** function _I2C1_InterruptsDisable *****************
  4834 ;; Defined at:
  4835 ;;		line 463 in file "mcc_generated_files/i2c_host/src/i2c1.c"
  4836 ;; Parameters:    Size  Location     Type
  4837 ;;		None
  4838 ;; Auto vars:     Size  Location     Type
  4839 ;;		None
  4840 ;; Return value:  Size  Location     Type
  4841 ;;                  1    wreg      void 
  4842 ;; Registers used:
  4843 ;;		wreg, status,2
  4844 ;; Tracked objects:
  4845 ;;		On entry : 0/0
  4846 ;;		On exit  : 0/0
  4847 ;;		Unchanged: 0/0
  4848 ;; Data sizes:     COMRAM   BANK5   BANK6   BANK7   BANK8   BANK9  BANK10  BANK11  BANK12  BANK13  BANK14  BANK15  BANK1
      +6  BANK17  BANK18  BANK19  BANK20  BANK21  BANK22  BANK23  BANK24  BANK25  BANK26  BANK27  BANK28  BANK29  BANK30  BANK3
      +1  BANK32  BANK33  BANK34  BANK35  BANK36
  4849 ;;      Params:         0       0       0       0       0       0       0       0       0       0       0       0       
      +0       0       0       0       0       0       0       0       0       0       0       0       0       0       0       
      +0       0       0       0       0       0
  4850 ;;      Locals:         0       0       0       0       0       0       0       0       0       0       0       0       
      +0       0       0       0       0       0       0       0       0       0       0       0       0       0       0       
      +0       0       0       0       0       0
  4851 ;;      Temps:          0       0       0       0       0       0       0       0       0       0       0       0       
      +0       0       0       0       0       0       0       0       0       0       0       0       0       0       0       
      +0       0       0       0       0       0
  4852 ;;      Totals:         0       0       0       0       0       0       0       0       0       0       0       0       
      +0       0       0       0       0       0       0       0       0       0       0       0       0       0       0       
      +0       0       0       0       0       0
  4853 ;;Total ram usage:        0 bytes
  4854 ;; Hardware stack levels used: 1
  4855 ;; This function calls:
  4856 ;;		Nothing
  4857 ;; This function is called by:
  4858 ;;		_I2C1_BusReset
  4859 ;;		_I2C1_Deinitialize
  4860 ;; This function uses a non-reentrant model
  4861 ;;
  4862                           
  4863                           	psect	text52
  4864   0030DA                     __ptext52:
  4865                           	callstack 0
  4866   0030DA                     _I2C1_InterruptsDisable:
  4867                           	callstack 117
  4868   0030DA                     
  4869                           ;mcc_generated_files/i2c_host/src/i2c1.c: 465:     PIE7bits.I2C1IE = 0;
  4870   0030DA  94A5               	bcf	165,2,c	;volatile
  4871                           
  4872                           ;mcc_generated_files/i2c_host/src/i2c1.c: 466:     PIE7bits.I2C1EIE = 0;
  4873   0030DC  96A5               	bcf	165,3,c	;volatile
  4874                           
  4875                           ;mcc_generated_files/i2c_host/src/i2c1.c: 467:     PIE7bits.I2C1RXIE = 0;
  4876   0030DE  90A5               	bcf	165,0,c	;volatile
  4877                           
  4878                           ;mcc_generated_files/i2c_host/src/i2c1.c: 468:     PIE7bits.I2C1TXIE = 0;
  4879   0030E0  92A5               	bcf	165,1,c	;volatile
  4880   0030E2                     
  4881                           ;mcc_generated_files/i2c_host/src/i2c1.c: 469:     I2C1PIE = 0x00;
  4882   0030E2  0E00               	movlw	0
  4883   0030E4  0102               	movlb	2	; () banked
  4884   0030E6  6F9B               	movwf	155,b	;volatile
  4885                           
  4886                           ;mcc_generated_files/i2c_host/src/i2c1.c: 470:     I2C1ERR = 0x00;
  4887   0030E8  0E00               	movlw	0
  4888   0030EA  6F97               	movwf	151,b	;volatile
  4889   0030EC                     
  4890                           ; BSR set to: 2
  4891   0030EC  0012               	return		;funcret
  4892   0030EE                     __end_of_I2C1_InterruptsDisable:
  4893                           	callstack 0
  4894                           
  4895 ;; *************** function _I2C1_InterruptsClear *****************
  4896 ;; Defined at:
  4897 ;;		line 473 in file "mcc_generated_files/i2c_host/src/i2c1.c"
  4898 ;; Parameters:    Size  Location     Type
  4899 ;;		None
  4900 ;; Auto vars:     Size  Location     Type
  4901 ;;		None
  4902 ;; Return value:  Size  Location     Type
  4903 ;;                  1    wreg      void 
  4904 ;; Registers used:
  4905 ;;		wreg, status,2
  4906 ;; Tracked objects:
  4907 ;;		On entry : 0/0
  4908 ;;		On exit  : 0/0
  4909 ;;		Unchanged: 0/0
  4910 ;; Data sizes:     COMRAM   BANK5   BANK6   BANK7   BANK8   BANK9  BANK10  BANK11  BANK12  BANK13  BANK14  BANK15  BANK1
      +6  BANK17  BANK18  BANK19  BANK20  BANK21  BANK22  BANK23  BANK24  BANK25  BANK26  BANK27  BANK28  BANK29  BANK30  BANK3
      +1  BANK32  BANK33  BANK34  BANK35  BANK36
  4911 ;;      Params:         0       0       0       0       0       0       0       0       0       0       0       0       
      +0       0       0       0       0       0       0       0       0       0       0       0       0       0       0       
      +0       0       0       0       0       0
  4912 ;;      Locals:         0       0       0       0       0       0       0       0       0       0       0       0       
      +0       0       0       0       0       0       0       0       0       0       0       0       0       0       0       
      +0       0       0       0       0       0
  4913 ;;      Temps:          0       0       0       0       0       0       0       0       0       0       0       0       
      +0       0       0       0       0       0       0       0       0       0       0       0       0       0       0       
      +0       0       0       0       0       0
  4914 ;;      Totals:         0       0       0       0       0       0       0       0       0       0       0       0       
      +0       0       0       0       0       0       0       0       0       0       0       0       0       0       0       
      +0       0       0       0       0       0
  4915 ;;Total ram usage:        0 bytes
  4916 ;; Hardware stack levels used: 1
  4917 ;; This function calls:
  4918 ;;		Nothing
  4919 ;; This function is called by:
  4920 ;;		_I2C1_Close
  4921 ;;		_I2C1_BusReset
  4922 ;; This function uses a non-reentrant model
  4923 ;;
  4924                           
  4925                           	psect	text53
  4926   00315C                     __ptext53:
  4927                           	callstack 0
  4928   00315C                     _I2C1_InterruptsClear:
  4929                           	callstack 117
  4930   00315C                     
  4931                           ;mcc_generated_files/i2c_host/src/i2c1.c: 475:     I2C1PIR = 0x00;
  4932   00315C  0E00               	movlw	0
  4933   00315E  0102               	movlb	2	; () banked
  4934   003160  6F9A               	movwf	154,b	;volatile
  4935   003162                     
  4936                           ; BSR set to: 2
  4937   003162  0012               	return		;funcret
  4938   003164                     __end_of_I2C1_InterruptsClear:
  4939                           	callstack 0
  4940                           
  4941 ;; *************** function _I2C1_ErrorFlagsClear *****************
  4942 ;; Defined at:
  4943 ;;		line 478 in file "mcc_generated_files/i2c_host/src/i2c1.c"
  4944 ;; Parameters:    Size  Location     Type
  4945 ;;		None
  4946 ;; Auto vars:     Size  Location     Type
  4947 ;;		None
  4948 ;; Return value:  Size  Location     Type
  4949 ;;                  1    wreg      void 
  4950 ;; Registers used:
  4951 ;;		None
  4952 ;; Tracked objects:
  4953 ;;		On entry : 0/0
  4954 ;;		On exit  : 0/0
  4955 ;;		Unchanged: 0/0
  4956 ;; Data sizes:     COMRAM   BANK5   BANK6   BANK7   BANK8   BANK9  BANK10  BANK11  BANK12  BANK13  BANK14  BANK15  BANK1
      +6  BANK17  BANK18  BANK19  BANK20  BANK21  BANK22  BANK23  BANK24  BANK25  BANK26  BANK27  BANK28  BANK29  BANK30  BANK3
      +1  BANK32  BANK33  BANK34  BANK35  BANK36
  4957 ;;      Params:         0       0       0       0       0       0       0       0       0       0       0       0       
      +0       0       0       0       0       0       0       0       0       0       0       0       0       0       0       
      +0       0       0       0       0       0
  4958 ;;      Locals:         0       0       0       0       0       0       0       0       0       0       0       0       
      +0       0       0       0       0       0       0       0       0       0       0       0       0       0       0       
      +0       0       0       0       0       0
  4959 ;;      Temps:          0       0       0       0       0       0       0       0       0       0       0       0       
      +0       0       0       0       0       0       0       0       0       0       0       0       0       0       0       
      +0       0       0       0       0       0
  4960 ;;      Totals:         0       0       0       0       0       0       0       0       0       0       0       0       
      +0       0       0       0       0       0       0       0       0       0       0       0       0       0       0       
      +0       0       0       0       0       0
  4961 ;;Total ram usage:        0 bytes
  4962 ;; Hardware stack levels used: 1
  4963 ;; This function calls:
  4964 ;;		Nothing
  4965 ;; This function is called by:
  4966 ;;		_I2C1_Close
  4967 ;;		_I2C1_BusReset
  4968 ;; This function uses a non-reentrant model
  4969 ;;
  4970                           
  4971                           	psect	text54
  4972   003118                     __ptext54:
  4973                           	callstack 0
  4974   003118                     _I2C1_ErrorFlagsClear:
  4975                           	callstack 117
  4976   003118                     
  4977                           ;mcc_generated_files/i2c_host/src/i2c1.c: 480:     I2C1ERRbits.BCLIF = 0;
  4978   003118  0102               	movlb	2	; () banked
  4979   00311A  9B97               	bcf	151,5,b	;volatile
  4980                           
  4981                           ;mcc_generated_files/i2c_host/src/i2c1.c: 481:     I2C1ERRbits.BTOIF = 0;
  4982   00311C  9D97               	bcf	151,6,b	;volatile
  4983                           
  4984                           ;mcc_generated_files/i2c_host/src/i2c1.c: 482:     I2C1ERRbits.NACKIF = 0;
  4985   00311E  9997               	bcf	151,4,b	;volatile
  4986   003120                     
  4987                           ; BSR set to: 2
  4988   003120  0012               	return		;funcret
  4989   003122                     __end_of_I2C1_ErrorFlagsClear:
  4990                           	callstack 0
  4991                           
  4992 ;; *************** function _I2C1_BufferClear *****************
  4993 ;; Defined at:
  4994 ;;		line 485 in file "mcc_generated_files/i2c_host/src/i2c1.c"
  4995 ;; Parameters:    Size  Location     Type
  4996 ;;		None
  4997 ;; Auto vars:     Size  Location     Type
  4998 ;;		None
  4999 ;; Return value:  Size  Location     Type
  5000 ;;                  1    wreg      void 
  5001 ;; Registers used:
  5002 ;;		wreg, status,2
  5003 ;; Tracked objects:
  5004 ;;		On entry : 0/0
  5005 ;;		On exit  : 0/0
  5006 ;;		Unchanged: 0/0
  5007 ;; Data sizes:     COMRAM   BANK5   BANK6   BANK7   BANK8   BANK9  BANK10  BANK11  BANK12  BANK13  BANK14  BANK15  BANK1
      +6  BANK17  BANK18  BANK19  BANK20  BANK21  BANK22  BANK23  BANK24  BANK25  BANK26  BANK27  BANK28  BANK29  BANK30  BANK3
      +1  BANK32  BANK33  BANK34  BANK35  BANK36
  5008 ;;      Params:         0       0       0       0       0       0       0       0       0       0       0       0       
      +0       0       0       0       0       0       0       0       0       0       0       0       0       0       0       
      +0       0       0       0       0       0
  5009 ;;      Locals:         0       0       0       0       0       0       0       0       0       0       0       0       
      +0       0       0       0       0       0       0       0       0       0       0       0       0       0       0       
      +0       0       0       0       0       0
  5010 ;;      Temps:          0       0       0       0       0       0       0       0       0       0       0       0       
      +0       0       0       0       0       0       0       0       0       0       0       0       0       0       0       
      +0       0       0       0       0       0
  5011 ;;      Totals:         0       0       0       0       0       0       0       0       0       0       0       0       
      +0       0       0       0       0       0       0       0       0       0       0       0       0       0       0       
      +0       0       0       0       0       0
  5012 ;;Total ram usage:        0 bytes
  5013 ;; Hardware stack levels used: 1
  5014 ;; This function calls:
  5015 ;;		Nothing
  5016 ;; This function is called by:
  5017 ;;		_I2C1_Close
  5018 ;;		_I2C1_BusReset
  5019 ;; This function uses a non-reentrant model
  5020 ;;
  5021                           
  5022                           	psect	text55
  5023   003122                     __ptext55:
  5024                           	callstack 0
  5025   003122                     _I2C1_BufferClear:
  5026                           	callstack 117
  5027   003122                     
  5028                           ;mcc_generated_files/i2c_host/src/i2c1.c: 487:     I2C1STAT1 = 0x00;
  5029   003122  0E00               	movlw	0
  5030   003124  0102               	movlb	2	; () banked
  5031   003126  6F99               	movwf	153,b	;volatile
  5032   003128                     
  5033                           ; BSR set to: 2
  5034                           ;mcc_generated_files/i2c_host/src/i2c1.c: 488:     I2C1STAT1bits.CLRBF = 1;
  5035   003128  8599               	bsf	153,2,b	;volatile
  5036   00312A                     
  5037                           ; BSR set to: 2
  5038   00312A  0012               	return		;funcret
  5039   00312C                     __end_of_I2C1_BufferClear:
  5040                           	callstack 0
  5041                           
  5042                           ;
  5043                           ; H/W Interrupt Vector Table @ 0x8
  5044                           ;
  5045                           
  5046                           	psect	ivt0x8
  5047   000008                     __pivt0x8:
  5048                           	callstack 0
  5049   000008                     ivt0x8_base:
  5050                           	callstack 0
  5051                           
  5052                           ; high-priority vector
  5053   000008  EF54  F015         	goto	_INTERRUPT_InterruptManager
  5054   000018                     	org	16
  5055                           
  5056                           ; low-priority vector
  5057   000018  00FF               	reset	
  5058                           
  5059                           	psect	rparam
  5060   000000                     
  5061                           	psect	config
  5062                           
  5063                           ;Config register CONFIG1 @ 0x300000
  5064                           ;	External Oscillator Selection
  5065                           ;	FEXTOSC = ECH, EC (external clock) above 8 MHz
  5066                           ;	Reset Oscillator Selection
  5067                           ;	RSTOSC = EXTOSC, EXTOSC operating per FEXTOSC bits (device manufacturing default)
  5068   300000                     	org	3145728
  5069   300000  FF                 	db	255
  5070                           
  5071                           ;Config register CONFIG2 @ 0x300001
  5072                           ;	Clock out Enable bit
  5073                           ;	CLKOUTEN = OFF, CLKOUT function is disabled
  5074                           ;	PRLOCKED One-Way Set Enable bit
  5075                           ;	PR1WAY = ON, PRLOCKED bit can be cleared and set only once
  5076                           ;	Clock Switch Enable bit
  5077                           ;	CSWEN = ON, Writing to NOSC and NDIV is allowed
  5078                           ;	Fail-Safe Clock Monitor Enable bit
  5079                           ;	FCMEN = ON, Fail-Safe Clock Monitor enabled
  5080   300001                     	org	3145729
  5081   300001  FF                 	db	255
  5082                           
  5083                           ;Config register CONFIG3 @ 0x300002
  5084                           ;	MCLR Enable bit
  5085                           ;	MCLRE = EXTMCLR, If LVP = 0, MCLR pin is MCLR; If LVP = 1, RE3 pin function is MCLR
  5086                           ;	Power-up timer selection bits
  5087                           ;	PWRTS = PWRT_OFF, PWRT is disabled
  5088                           ;	Multi-vector enable bit
  5089                           ;	MVECEN = OFF, Interrupt contoller does not use vector table to prioritze interrupts
  5090                           ;	IVTLOCK bit One-way set enable bit
  5091                           ;	IVT1WAY = ON, IVTLOCKED bit can be cleared and set only once
  5092                           ;	Low Power BOR Enable bit
  5093                           ;	LPBOREN = OFF, Low-Power BOR disabled
  5094                           ;	Brown-out Reset Enable bits
  5095                           ;	BOREN = SBORDIS, Brown-out Reset enabled , SBOREN bit is ignored
  5096   300002                     	org	3145730
  5097   300002  F7                 	db	247
  5098                           
  5099                           ;Config register CONFIG4 @ 0x300003
  5100                           ;	Brown-out Reset Voltage Selection bits
  5101                           ;	BORV = VBOR_1P9, Brown-out Reset Voltage (VBOR) set to 1.9V
  5102                           ;	ZCD Disable bit
  5103                           ;	ZCD = OFF, ZCD module is disabled. ZCD can be enabled by setting the ZCDSEN bit of ZCD
      +                          CON
  5104                           ;	PPSLOCK bit One-Way Set Enable bit
  5105                           ;	PPS1WAY = ON, PPSLOCKED bit can be cleared and set only once; PPS registers remain loc
      +                          ked after one clear/set cycle
  5106                           ;	Stack Full/Underflow Reset Enable bit
  5107                           ;	STVREN = ON, Stack full/underflow will cause Reset
  5108                           ;	Low Voltage Programming Enable bit
  5109                           ;	LVP = ON, Low voltage programming enabled. MCLR/VPP pin function is MCLR. MCLRE config
      +                          uration bit is ignored
  5110                           ;	Extended Instruction Set Enable bit
  5111                           ;	XINST = OFF, Extended Instruction Set and Indexed Addressing Mode disabled
  5112   300003                     	org	3145731
  5113   300003  FF                 	db	255
  5114                           
  5115                           ;Config register CONFIG5 @ 0x300004
  5116                           ;	WDT Period selection bits
  5117                           ;	WDTCPS = WDTCPS_31, Divider ratio 1:65536; software control of WDTPS
  5118                           ;	WDT operating mode
  5119                           ;	WDTE = OFF, WDT Disabled; SWDTEN is ignored
  5120   300004                     	org	3145732
  5121   300004  9F                 	db	159
  5122                           
  5123                           ;Config register CONFIG6 @ 0x300005
  5124                           ;	WDT Window Select bits
  5125                           ;	WDTCWS = WDTCWS_7, window always open (100%); software control; keyed access not requi
      +                          red
  5126                           ;	WDT input clock selector
  5127                           ;	WDTCCS = SC, Software Control
  5128   300005                     	org	3145733
  5129   300005  FF                 	db	255
  5130                           
  5131                           ;Config register CONFIG7 @ 0x300006
  5132                           ;	Boot Block Size selection bits
  5133                           ;	BBSIZE = BBSIZE_512, Boot Block size is 512 words
  5134                           ;	Boot Block enable bit
  5135                           ;	BBEN = OFF, Boot block disabled
  5136                           ;	Storage Area Flash enable bit
  5137                           ;	SAFEN = OFF, SAF disabled
  5138                           ;	Background Debugger
  5139                           ;	DEBUG = 0x1, unprogrammed default
  5140   300006                     	org	3145734
  5141   300006  FF                 	db	255
  5142                           
  5143                           ;Config register CONFIG8 @ 0x300007
  5144                           ;	Boot Block Write Protection bit
  5145                           ;	WRTB = OFF, Boot Block not Write protected
  5146                           ;	Configuration Register Write Protection bit
  5147                           ;	WRTC = OFF, Configuration registers not Write protected
  5148                           ;	Data EEPROM Write Protection bit
  5149                           ;	WRTD = OFF, Data EEPROM not Write protected
  5150                           ;	SAF Write protection bit
  5151                           ;	WRTSAF = OFF, SAF not Write Protected
  5152                           ;	Application Block write protection bit
  5153                           ;	WRTAPP = OFF, Application Block not write protected
  5154   300007                     	org	3145735
  5155   300007  FF                 	db	255
  5156                           
  5157                           ;Config register CONFIG10 @ 0x300009
  5158                           ;	PFM and Data EEPROM Code Protection bit
  5159                           ;	CP = OFF, PFM and Data EEPROM code protection disabled
  5160   300009                     	org	3145737
  5161   300009  FF                 	db	255
  5162                           tosu	equ	0x4FF
  5163                           tosh	equ	0x4FE
  5164                           tosl	equ	0x4FD
  5165                           stkptr	equ	0x4FC
  5166                           pclatu	equ	0x4FB
  5167                           pclath	equ	0x4FA
  5168                           pcl	equ	0x4F9
  5169                           tblptru	equ	0x4F8
  5170                           tblptrh	equ	0x4F7
  5171                           tblptrl	equ	0x4F6
  5172                           tablat	equ	0x4F5
  5173                           prodh	equ	0x4F4
  5174                           prodl	equ	0x4F3
  5175                           indf0	equ	0x4EF
  5176                           postinc0	equ	0x4EE
  5177                           postdec0	equ	0x4ED
  5178                           preinc0	equ	0x4EC
  5179                           plusw0	equ	0x4EB
  5180                           fsr0h	equ	0x4EA
  5181                           fsr0l	equ	0x4E9
  5182                           wreg	equ	0x4E8
  5183                           indf1	equ	0x4E7
  5184                           postinc1	equ	0x4E6
  5185                           postdec1	equ	0x4E5
  5186                           preinc1	equ	0x4E4
  5187                           plusw1	equ	0x4E3
  5188                           fsr1h	equ	0x4E2
  5189                           fsr1l	equ	0x4E1
  5190                           bsr	equ	0x4E0
  5191                           indf2	equ	0x4DF
  5192                           postinc2	equ	0x4DE
  5193                           postdec2	equ	0x4DD
  5194                           preinc2	equ	0x4DC
  5195                           plusw2	equ	0x4DB
  5196                           fsr2h	equ	0x4DA
  5197                           fsr2l	equ	0x4D9
  5198                           status	equ	0x4D8

Data Sizes:
    Strings     44
    Constant    102
    Data        1
    BSS         73
    Persistent  0
    Stack       0

Auto Spaces:
    Space          Size  Autos    Used
    COMRAM           95     44      86
    BANK5           160      0      32
    BANK6           256      0       0
    BANK7           256      0       0
    BANK8           256      0       0
    BANK9           256      0       0
    BANK10          256      0       0
    BANK11          256      0       0
    BANK12          256      0       0
    BANK13          256      0       0
    BANK14          256      0       0
    BANK15          256      0       0
    BANK16          256      0       0
    BANK17          256      0       0
    BANK18          256      0       0
    BANK19          256      0       0
    BANK20          256      0       0
    BANK21          256      0       0
    BANK22          256      0       0
    BANK23          256      0       0
    BANK24          256      0       0
    BANK25          256      0       0
    BANK26          256      0       0
    BANK27          256      0       0
    BANK28          256      0       0
    BANK29          256      0       0
    BANK30          256      0       0
    BANK31          256      0       0
    BANK32          256      0       0
    BANK33          256      0       0
    BANK34          256      0       0
    BANK35          256      0       0
    BANK36          256      0       0

Pointer List with Targets:

    fputc@fp	PTR struct _IO_FILE size(2) Largest target is 0
		 -> NULL(NULL[0]), 

    fputc@fp$.$buffer	PTR unsigned char  size(2) Largest target is 0

    fputc@fp$.$source	PTR const unsigned char  size(2) Largest target is 0

    I2C	PTR const struct . size(1) Largest target is 30
		 -> I2C1_Host(CODE[30]), 

    I2C$CallbackRegister	PTR FTN(PTR FTN()void ,)void  size(3) Largest target is 1
		 -> I2C1_CallbackRegister(), 

    I2C$Deinitialize	PTR FTN()void  size(3) Largest target is 1
		 -> I2C1_Deinitialize(), 

    I2C$ErrorGet	PTR FTN()enum E17437 size(3) Largest target is 1
		 -> I2C1_ErrorGet(), 

    I2C$Initialize	PTR FTN()void  size(3) Largest target is 1
		 -> I2C1_Initialize(), 

    I2C$IsBusy	PTR FTN()_Bool  size(3) Largest target is 1
		 -> I2C1_IsBusy(), 

    I2C$Read	PTR FTN(unsigned short ,PTR unsigned char ,unsigned int ,)_Bool  size(3) Largest target is 1
		 -> I2C1_Read(), 

    I2C$Tasks	PTR FTN()void  size(3) Largest target is 1
		 -> NULL(), 

    I2C$TransferSetup	PTR FTN(PTR struct .,unsigned long ,)_Bool  size(3) Largest target is 1
		 -> NULL(), 

    I2C$Write	PTR FTN(unsigned short ,PTR unsigned char ,unsigned int ,)_Bool  size(3) Largest target is 1
		 -> I2C1_Write(), 

    I2C$WriteRead	PTR FTN(unsigned short ,PTR unsigned char ,unsigned int ,PTR unsigned char ,unsigned int ,)_Bool  size(3) Largest target is 1
		 -> I2C1_WriteRead(), 

    I2C1_Callback	PTR FTN()void  size(3) Largest target is 1
		 -> I2C1_DefaultCallback(), NULL(), 

    I2C1_CallbackRegister@callbackHandler	PTR FTN()void  size(3) Largest target is 1
		 -> I2C1_DefaultCallback(), 

    I2C1_Host$CallbackRegister	PTR FTN(PTR FTN()void ,)void  size(3) Largest target is 1
		 -> I2C1_CallbackRegister(), 

    I2C1_Host$Deinitialize	PTR FTN()void  size(3) Largest target is 1
		 -> I2C1_Deinitialize(), 

    I2C1_Host$ErrorGet	PTR FTN()enum E17437 size(3) Largest target is 1
		 -> I2C1_ErrorGet(), 

    I2C1_Host$Initialize	PTR FTN()void  size(3) Largest target is 1
		 -> I2C1_Initialize(), 

    I2C1_Host$IsBusy	PTR FTN()_Bool  size(3) Largest target is 1
		 -> I2C1_IsBusy(), 

    I2C1_Host$Read	PTR FTN(unsigned short ,PTR unsigned char ,unsigned int ,)_Bool  size(3) Largest target is 1
		 -> I2C1_Read(), 

    I2C1_Host$Tasks	PTR FTN()void  size(3) Largest target is 1
		 -> NULL(), 

    I2C1_Host$TransferSetup	PTR FTN(PTR struct .,unsigned long ,)_Bool  size(3) Largest target is 1
		 -> NULL(), 

    I2C1_Host$Write	PTR FTN(unsigned short ,PTR unsigned char ,unsigned int ,)_Bool  size(3) Largest target is 1
		 -> I2C1_Write(), 

    I2C1_Host$WriteRead	PTR FTN(unsigned short ,PTR unsigned char ,unsigned int ,PTR unsigned char ,unsigned int ,)_Bool  size(3) Largest target is 1
		 -> I2C1_WriteRead(), 

    I2C1_Write@data	PTR unsigned char  size(2) Largest target is 9471
		 -> RAM(DATA[9471]), 

    i2c1Status$readPtr	PTR unsigned char  size(2) Largest target is 0
		 -> NULL(NULL[0]), 

    i2c1Status$writePtr	PTR unsigned char  size(2) Largest target is 9471
		 -> RAM(DATA[9471]), NULL(NULL[0]), 

    INT0_InterruptHandler	PTR FTN()void  size(3) Largest target is 1
		 -> INT0_DefaultInterruptHandler(), NULL(), 

    INT0_SetInterruptHandler@InterruptHandler	PTR FTN()void  size(3) Largest target is 1
		 -> INT0_DefaultInterruptHandler(), 

    INT1_InterruptHandler	PTR FTN()void  size(3) Largest target is 1
		 -> INT1_DefaultInterruptHandler(), NULL(), 

    INT1_SetInterruptHandler@InterruptHandler	PTR FTN()void  size(3) Largest target is 1
		 -> INT1_DefaultInterruptHandler(), 

    INT2_InterruptHandler	PTR FTN()void  size(3) Largest target is 1
		 -> INT2_DefaultInterruptHandler(), NULL(), 

    INT2_SetInterruptHandler@InterruptHandler	PTR FTN()void  size(3) Largest target is 1
		 -> INT2_DefaultInterruptHandler(), 

    NULL$0	PTR struct . size(2) Largest target is 0

    printf@ap	PTR void [1] size(2) Largest target is 2
		 -> ?_printf(COMRAM[2]), 

    printf@fmt	PTR const unsigned char  size(1) Largest target is 19
		 -> STR_1(CODE[14]), STR_2(CODE[4]), STR_3(CODE[7]), STR_4(CODE[19]), 

    S1141$20$0	PTR FTN()void  size(3) Largest target is 1
		 -> UART1_DefaultFramingErrorCallback(), 

    S1141$21$0	PTR FTN()void  size(3) Largest target is 1
		 -> UART1_DefaultOverrunErrorCallback(), 

    S1141$22$0	PTR FTN()void  size(3) Largest target is 1
		 -> UART1_DefaultParityErrorCallback(), 

    S1141$AutoBaudEventEnableGet	PTR FTN()_Bool  size(3) Largest target is 1
		 -> NULL(), 

    S1141$AutoBaudQuery	PTR FTN()_Bool  size(3) Largest target is 1
		 -> UART1_AutoBaudQuery(), 

    S1141$AutoBaudSet	PTR FTN(_Bool ,)void  size(3) Largest target is 1
		 -> UART1_AutoBaudSet(), 

    S1141$BaudRateGet	PTR FTN()unsigned long  size(3) Largest target is 1
		 -> NULL(), 

    S1141$BaudRateSet	PTR FTN(unsigned long ,)void  size(3) Largest target is 1
		 -> NULL(), 

    S1141$BRGCountGet	PTR FTN()unsigned long  size(3) Largest target is 1
		 -> NULL(), 

    S1141$BRGCountSet	PTR FTN(unsigned long ,)void  size(3) Largest target is 1
		 -> NULL(), 

    S1141$Deinitialize	PTR FTN()void  size(3) Largest target is 1
		 -> UART1_Deinitialize(), 

    S1141$ErrorGet	PTR FTN()unsigned int  size(3) Largest target is 2
		 -> UART1_ErrorGet(), 

    S1141$EventCallbackRegister	PTR FTN(PTR FTN()void ,)void  size(3) Largest target is 1
		 -> NULL(), 

    S1141$FramingErrorCallbackRegister	PTR FTN(PTR FTN()void ,)void  size(3) Largest target is 1
		 -> UART1_FramingErrorCallbackRegister(), 

    S1141$Initialize	PTR FTN()void  size(3) Largest target is 1
		 -> UART1_Initialize(), 

    S1141$IsRxReady	PTR FTN()_Bool  size(3) Largest target is 1
		 -> UART1_IsRxReady(), 

    S1141$IsTxDone	PTR FTN()_Bool  size(3) Largest target is 1
		 -> UART1_IsTxDone(), 

    S1141$IsTxReady	PTR FTN()_Bool  size(3) Largest target is 1
		 -> UART1_IsTxReady(), 

    S1141$OverrunErrorCallbackRegister	PTR FTN(PTR FTN()void ,)void  size(3) Largest target is 1
		 -> UART1_OverrunErrorCallbackRegister(), 

    S1141$ParityErrorCallbackRegister	PTR FTN(PTR FTN()void ,)void  size(3) Largest target is 1
		 -> UART1_ParityErrorCallbackRegister(), 

    S1141$Read	PTR FTN()unsigned char  size(3) Largest target is 1
		 -> UART1_Read(), 

    S1141$RxCompleteCallbackRegister	PTR FTN(PTR FTN()void ,)void  size(3) Largest target is 1
		 -> NULL(), 

    S1141$TransmitDisable	PTR FTN()void  size(3) Largest target is 1
		 -> UART1_TransmitDisable(), 

    S1141$TransmitEnable	PTR FTN()void  size(3) Largest target is 1
		 -> UART1_TransmitEnable(), 

    S1141$TxCollisionCallbackRegister	PTR FTN(PTR FTN()void ,)void  size(3) Largest target is 1
		 -> NULL(), 

    S1141$TxCompleteCallbackRegister	PTR FTN(PTR FTN()void ,)void  size(3) Largest target is 1
		 -> NULL(), 

    S1141$Write	PTR FTN(unsigned char ,)void  size(3) Largest target is 1
		 -> UART1_Write(), 

    S131$readPtr	PTR unsigned char  size(2) Largest target is 0
		 -> NULL(NULL[0]), 

    S131$writePtr	PTR unsigned char  size(2) Largest target is 9471
		 -> RAM(DATA[9471]), NULL(NULL[0]), 

    S2117$buffer	PTR unsigned char  size(2) Largest target is 0

    S2117$source	PTR const unsigned char  size(2) Largest target is 0

    S42$2$1	PTR unsigned char  size(2) Largest target is 9471
		 -> RAM(DATA[9471]), 

    S42$3$1	PTR unsigned char  size(2) Largest target is 0

    S42$4$1	PTR unsigned char  size(2) Largest target is 0

    S42$4$3	PTR unsigned char  size(2) Largest target is 0

    S42$8$0	PTR FTN()void  size(3) Largest target is 1
		 -> I2C1_DefaultCallback(), 

    S42$CallbackRegister	PTR FTN(PTR FTN()void ,)void  size(3) Largest target is 1
		 -> I2C1_CallbackRegister(), 

    S42$Deinitialize	PTR FTN()void  size(3) Largest target is 1
		 -> I2C1_Deinitialize(), 

    S42$ErrorGet	PTR FTN()enum E17437 size(3) Largest target is 1
		 -> I2C1_ErrorGet(), 

    S42$Initialize	PTR FTN()void  size(3) Largest target is 1
		 -> I2C1_Initialize(), 

    S42$IsBusy	PTR FTN()_Bool  size(3) Largest target is 1
		 -> I2C1_IsBusy(), 

    S42$Read	PTR FTN(unsigned short ,PTR unsigned char ,unsigned int ,)_Bool  size(3) Largest target is 1
		 -> I2C1_Read(), 

    S42$Tasks	PTR FTN()void  size(3) Largest target is 1
		 -> NULL(), 

    S42$TransferSetup	PTR FTN(PTR struct .,unsigned long ,)_Bool  size(3) Largest target is 1
		 -> NULL(), 

    S42$Write	PTR FTN(unsigned short ,PTR unsigned char ,unsigned int ,)_Bool  size(3) Largest target is 1
		 -> I2C1_Write(), 

    S42$WriteRead	PTR FTN(unsigned short ,PTR unsigned char ,unsigned int ,PTR unsigned char ,unsigned int ,)_Bool  size(3) Largest target is 1
		 -> I2C1_WriteRead(), 

    UART1$AutoBaudEventEnableGet	PTR FTN()_Bool  size(3) Largest target is 1
		 -> NULL(), 

    UART1$AutoBaudQuery	PTR FTN()_Bool  size(3) Largest target is 1
		 -> UART1_AutoBaudQuery(), 

    UART1$AutoBaudSet	PTR FTN(_Bool ,)void  size(3) Largest target is 1
		 -> UART1_AutoBaudSet(), 

    UART1$BaudRateGet	PTR FTN()unsigned long  size(3) Largest target is 1
		 -> NULL(), 

    UART1$BaudRateSet	PTR FTN(unsigned long ,)void  size(3) Largest target is 1
		 -> NULL(), 

    UART1$BRGCountGet	PTR FTN()unsigned long  size(3) Largest target is 1
		 -> NULL(), 

    UART1$BRGCountSet	PTR FTN(unsigned long ,)void  size(3) Largest target is 1
		 -> NULL(), 

    UART1$Deinitialize	PTR FTN()void  size(3) Largest target is 1
		 -> UART1_Deinitialize(), 

    UART1$ErrorGet	PTR FTN()unsigned int  size(3) Largest target is 2
		 -> UART1_ErrorGet(), 

    UART1$EventCallbackRegister	PTR FTN(PTR FTN()void ,)void  size(3) Largest target is 1
		 -> NULL(), 

    UART1$FramingErrorCallbackRegister	PTR FTN(PTR FTN()void ,)void  size(3) Largest target is 1
		 -> UART1_FramingErrorCallbackRegister(), 

    UART1$Initialize	PTR FTN()void  size(3) Largest target is 1
		 -> UART1_Initialize(), 

    UART1$IsRxReady	PTR FTN()_Bool  size(3) Largest target is 1
		 -> UART1_IsRxReady(), 

    UART1$IsTxDone	PTR FTN()_Bool  size(3) Largest target is 1
		 -> UART1_IsTxDone(), 

    UART1$IsTxReady	PTR FTN()_Bool  size(3) Largest target is 1
		 -> UART1_IsTxReady(), 

    UART1$OverrunErrorCallbackRegister	PTR FTN(PTR FTN()void ,)void  size(3) Largest target is 1
		 -> UART1_OverrunErrorCallbackRegister(), 

    UART1$ParityErrorCallbackRegister	PTR FTN(PTR FTN()void ,)void  size(3) Largest target is 1
		 -> UART1_ParityErrorCallbackRegister(), 

    UART1$Read	PTR FTN()unsigned char  size(3) Largest target is 1
		 -> UART1_Read(), 

    UART1$RxCompleteCallbackRegister	PTR FTN(PTR FTN()void ,)void  size(3) Largest target is 1
		 -> NULL(), 

    UART1$TransmitDisable	PTR FTN()void  size(3) Largest target is 1
		 -> UART1_TransmitDisable(), 

    UART1$TransmitEnable	PTR FTN()void  size(3) Largest target is 1
		 -> UART1_TransmitEnable(), 

    UART1$TxCollisionCallbackRegister	PTR FTN(PTR FTN()void ,)void  size(3) Largest target is 1
		 -> NULL(), 

    UART1$TxCompleteCallbackRegister	PTR FTN(PTR FTN()void ,)void  size(3) Largest target is 1
		 -> NULL(), 

    UART1$Write	PTR FTN(unsigned char ,)void  size(3) Largest target is 1
		 -> UART1_Write(), 

    UART1_FramingErrorCallbackRegister@callbackHandler	PTR FTN()void  size(3) Largest target is 1
		 -> UART1_DefaultFramingErrorCallback(), 

    UART1_FramingErrorHandler	PTR FTN()void  size(3) Largest target is 1
		 -> UART1_DefaultFramingErrorCallback(), NULL(), 

    UART1_OverrunErrorCallbackRegister@callbackHandler	PTR FTN()void  size(3) Largest target is 1
		 -> UART1_DefaultOverrunErrorCallback(), 

    UART1_OverrunErrorHandler	PTR FTN()void  size(3) Largest target is 1
		 -> UART1_DefaultOverrunErrorCallback(), NULL(), 

    UART1_ParityErrorCallbackRegister@callbackHandler	PTR FTN()void  size(3) Largest target is 1
		 -> UART1_DefaultParityErrorCallback(), 

    UART1_ParityErrorHandler	PTR FTN()void  size(3) Largest target is 1
		 -> UART1_DefaultParityErrorCallback(), NULL(), 

    vfpfcnvrt@ap	PTR PTR void  size(2) Largest target is 2
		 -> printf@ap(COMRAM[2]), 

    vfpfcnvrt@cp	PTR unsigned char  size(1) Largest target is 19
		 -> STR_1(CODE[14]), STR_2(CODE[4]), STR_3(CODE[7]), STR_4(CODE[19]), 

    vfpfcnvrt@fmt	PTR PTR unsigned char  size(2) Largest target is 1
		 -> vfprintf@cfmt(COMRAM[1]), 

    vfpfcnvrt@fp	PTR struct _IO_FILE size(2) Largest target is 0
		 -> NULL(NULL[0]), 

    vfprintf@ap	PTR PTR void  size(2) Largest target is 2
		 -> printf@ap(COMRAM[2]), 

    vfprintf@cfmt	PTR unsigned char  size(1) Largest target is 19
		 -> STR_1(CODE[14]), STR_2(CODE[4]), STR_3(CODE[7]), STR_4(CODE[19]), 

    vfprintf@fmt	PTR const unsigned char  size(1) Largest target is 19
		 -> STR_1(CODE[14]), STR_2(CODE[4]), STR_3(CODE[7]), STR_4(CODE[19]), 

    vfprintf@fp	PTR struct _IO_FILE size(2) Largest target is 0
		 -> NULL(NULL[0]), 


Critical Paths under _main in COMRAM

    _main->_printf
    _printf->_vfprintf
    _vfprintf->_vfpfcnvrt
    _vfpfcnvrt->_fputc
    _fputc->_putch
    _putch->_UART1_IsTxReady
    _putch->_UART1_Write
    _UART1_Initialize->_UART1_FramingErrorCallbackRegister
    _UART1_Initialize->_UART1_OverrunErrorCallbackRegister
    _UART1_Initialize->_UART1_ParityErrorCallbackRegister
    _INTERRUPT_Initialize->_INT0_SetInterruptHandler
    _INTERRUPT_Initialize->_INT1_SetInterruptHandler
    _INTERRUPT_Initialize->_INT2_SetInterruptHandler
    _I2C1_Initialize->_I2C1_CallbackRegister
    _I2C1_Write->_I2C1_IsBusy
    _I2C1_WriteStart->_I2C1_AddrTransmit
    _I2C1_WriteStart->_I2C1_CounterSet

Critical Paths under _INTERRUPT_InterruptManager in COMRAM

    _I2C1_TX_ISR->_I2C1_DataTransmit
    _I2C1_ReadStart->i2_I2C1_AddrTransmit
    _I2C1_ReadStart->i2_I2C1_CounterSet
    _I2C1_StopSend->_I2C1_DataTransmit
    _I2C1_StopSend->i2_I2C1_CounterSet

Critical Paths under _main in BANK5

    None.

Critical Paths under _INTERRUPT_InterruptManager in BANK5

    None.

Critical Paths under _main in BANK6

    None.

Critical Paths under _INTERRUPT_InterruptManager in BANK6

    None.

Critical Paths under _main in BANK7

    None.

Critical Paths under _INTERRUPT_InterruptManager in BANK7

    None.

Critical Paths under _main in BANK8

    None.

Critical Paths under _INTERRUPT_InterruptManager in BANK8

    None.

Critical Paths under _main in BANK9

    None.

Critical Paths under _INTERRUPT_InterruptManager in BANK9

    None.

Critical Paths under _main in BANK10

    None.

Critical Paths under _INTERRUPT_InterruptManager in BANK10

    None.

Critical Paths under _main in BANK11

    None.

Critical Paths under _INTERRUPT_InterruptManager in BANK11

    None.

Critical Paths under _main in BANK12

    None.

Critical Paths under _INTERRUPT_InterruptManager in BANK12

    None.

Critical Paths under _main in BANK13

    None.

Critical Paths under _INTERRUPT_InterruptManager in BANK13

    None.

Critical Paths under _main in BANK14

    None.

Critical Paths under _INTERRUPT_InterruptManager in BANK14

    None.

Critical Paths under _main in BANK15

    None.

Critical Paths under _INTERRUPT_InterruptManager in BANK15

    None.

Critical Paths under _main in BANK16

    None.

Critical Paths under _INTERRUPT_InterruptManager in BANK16

    None.

Critical Paths under _main in BANK17

    None.

Critical Paths under _INTERRUPT_InterruptManager in BANK17

    None.

Critical Paths under _main in BANK18

    None.

Critical Paths under _INTERRUPT_InterruptManager in BANK18

    None.

Critical Paths under _main in BANK19

    None.

Critical Paths under _INTERRUPT_InterruptManager in BANK19

    None.

Critical Paths under _main in BANK20

    None.

Critical Paths under _INTERRUPT_InterruptManager in BANK20

    None.

Critical Paths under _main in BANK21

    None.

Critical Paths under _INTERRUPT_InterruptManager in BANK21

    None.

Critical Paths under _main in BANK22

    None.

Critical Paths under _INTERRUPT_InterruptManager in BANK22

    None.

Critical Paths under _main in BANK23

    None.

Critical Paths under _INTERRUPT_InterruptManager in BANK23

    None.

Critical Paths under _main in BANK24

    None.

Critical Paths under _INTERRUPT_InterruptManager in BANK24

    None.

Critical Paths under _main in BANK25

    None.

Critical Paths under _INTERRUPT_InterruptManager in BANK25

    None.

Critical Paths under _main in BANK26

    None.

Critical Paths under _INTERRUPT_InterruptManager in BANK26

    None.

Critical Paths under _main in BANK27

    None.

Critical Paths under _INTERRUPT_InterruptManager in BANK27

    None.

Critical Paths under _main in BANK28

    None.

Critical Paths under _INTERRUPT_InterruptManager in BANK28

    None.

Critical Paths under _main in BANK29

    None.

Critical Paths under _INTERRUPT_InterruptManager in BANK29

    None.

Critical Paths under _main in BANK30

    None.

Critical Paths under _INTERRUPT_InterruptManager in BANK30

    None.

Critical Paths under _main in BANK31

    None.

Critical Paths under _INTERRUPT_InterruptManager in BANK31

    None.

Critical Paths under _main in BANK32

    None.

Critical Paths under _INTERRUPT_InterruptManager in BANK32

    None.

Critical Paths under _main in BANK33

    None.

Critical Paths under _INTERRUPT_InterruptManager in BANK33

    None.

Critical Paths under _main in BANK34

    None.

Critical Paths under _INTERRUPT_InterruptManager in BANK34

    None.

Critical Paths under _main in BANK35

    None.

Critical Paths under _INTERRUPT_InterruptManager in BANK35

    None.

Critical Paths under _main in BANK36

    None.

Critical Paths under _INTERRUPT_InterruptManager in BANK36

    None.

Call Graph Tables:

 ---------------------------------------------------------------------------------
 (Depth) Function   	        Calls       Base Space   Used Autos Params    Refs
 ---------------------------------------------------------------------------------
 (0) _main                                                 4     4      0    3529
                                             40 COMRAM     4     4      0
                         _I2C1_Write *
                  _SYSTEM_Initialize
                             _printf
 ---------------------------------------------------------------------------------
 (1) _printf                                               7     4      3    2256
                                             35 COMRAM     5     2      3
                           _vfprintf
 ---------------------------------------------------------------------------------
 (2) _vfprintf                                             6     1      5    1898
                                             29 COMRAM     6     1      5
                          _vfpfcnvrt
 ---------------------------------------------------------------------------------
 (3) _vfpfcnvrt                                           16    10      6    1548
                                             14 COMRAM    15     9      6
                              _fputc
 ---------------------------------------------------------------------------------
 (4) _fputc                                                9     5      4     850
                                              5 COMRAM     9     5      4
                              _putch
 ---------------------------------------------------------------------------------
 (5) _putch                                                1     1      0      68
                                              4 COMRAM     1     1      0
                    _UART1_IsTxReady
                        _UART1_Write
 ---------------------------------------------------------------------------------
 (6) _UART1_Write                                          1     1      0      22
                                              3 COMRAM     1     1      0
 ---------------------------------------------------------------------------------
 (6) _UART1_IsTxReady                                      1     1      0      24
                                              3 COMRAM     1     1      0
 ---------------------------------------------------------------------------------
 (1) _SYSTEM_Initialize                                    0     0      0     850
                   _CLOCK_Initialize
                    _I2C1_Initialize
               _INTERRUPT_Initialize
             _PIN_MANAGER_Initialize
                   _UART1_Initialize
 ---------------------------------------------------------------------------------
 (2) _UART1_Initialize                                     0     0      0     360
 _UART1_FramingErrorCallbackRegister
 _UART1_OverrunErrorCallbackRegister
  _UART1_ParityErrorCallbackRegister
 ---------------------------------------------------------------------------------
 (3) _UART1_ParityErrorCallbackRegister                    3     0      3     120
                                              3 COMRAM     3     0      3
 ---------------------------------------------------------------------------------
 (3) _UART1_OverrunErrorCallbackRegister                   3     0      3     120
                                              3 COMRAM     3     0      3
 ---------------------------------------------------------------------------------
 (3) _UART1_FramingErrorCallbackRegister                   3     0      3     120
                                              3 COMRAM     3     0      3
 ---------------------------------------------------------------------------------
 (2) _PIN_MANAGER_Initialize                               0     0      0       0
 ---------------------------------------------------------------------------------
 (2) _INTERRUPT_Initialize                                 0     0      0     294
           _INT0_SetInterruptHandler
           _INT1_SetInterruptHandler
           _INT2_SetInterruptHandler
 ---------------------------------------------------------------------------------
 (3) _INT2_SetInterruptHandler                             3     0      3      98
                                              3 COMRAM     3     0      3
 ---------------------------------------------------------------------------------
 (3) _INT1_SetInterruptHandler                             3     0      3      98
                                              3 COMRAM     3     0      3
 ---------------------------------------------------------------------------------
 (3) _INT0_SetInterruptHandler                             3     0      3      98
                                              3 COMRAM     3     0      3
 ---------------------------------------------------------------------------------
 (2) _I2C1_Initialize                                      0     0      0     196
              _I2C1_CallbackRegister
              _I2C1_InterruptsEnable
 ---------------------------------------------------------------------------------
 (3) _I2C1_InterruptsEnable                                0     0      0       0
 ---------------------------------------------------------------------------------
 (3) _I2C1_CallbackRegister                                3     0      3     196
                                              3 COMRAM     3     0      3
 ---------------------------------------------------------------------------------
 (2) _CLOCK_Initialize                                     0     0      0       0
 ---------------------------------------------------------------------------------
 (1) _I2C1_Write                                           7     1      6     287
                                              4 COMRAM     6     0      6
                        _I2C1_IsBusy
                    _I2C1_WriteStart
 ---------------------------------------------------------------------------------
 (2) _I2C1_WriteStart                                      0     0      0      30
                  _I2C1_AddrTransmit
                    _I2C1_CounterSet
                 _I2C1_RestartEnable
                     _I2C1_StartSend
 ---------------------------------------------------------------------------------
 (3) _I2C1_StartSend                                       0     0      0       0
 ---------------------------------------------------------------------------------
 (3) _I2C1_RestartEnable                                   0     0      0       0
 ---------------------------------------------------------------------------------
 (3) _I2C1_CounterSet                                      1     1      0      15
                                              3 COMRAM     1     1      0
 ---------------------------------------------------------------------------------
 (3) _I2C1_AddrTransmit                                    1     1      0      15
                                              3 COMRAM     1     1      0
 ---------------------------------------------------------------------------------
 (2) _I2C1_IsBusy                                          1     1      0      24
                                              3 COMRAM     1     1      0
 ---------------------------------------------------------------------------------
 Estimated maximum stack depth 6
 ---------------------------------------------------------------------------------
 (Depth) Function   	        Calls       Base Space   Used Autos Params    Refs
 ---------------------------------------------------------------------------------
 (7) _INTERRUPT_InterruptManager                           2     2      0     133
                                              1 COMRAM     2     2      0
                     _I2C1_ERROR_ISR
                           _I2C1_ISR
                        _I2C1_RX_ISR
                        _I2C1_TX_ISR
 ---------------------------------------------------------------------------------
 (8) _I2C1_TX_ISR                                          0     0      0      15
                  _I2C1_DataTransmit
 ---------------------------------------------------------------------------------
 (8) _I2C1_RX_ISR                                          0     0      0       0
                   _I2C1_DataReceive
 ---------------------------------------------------------------------------------
 (9) _I2C1_DataReceive                                     0     0      0       0
 ---------------------------------------------------------------------------------
 (8) _I2C1_ISR                                             0     0      0      81
                         _I2C1_Close
                     _I2C1_ReadStart
                _I2C1_RestartDisable
                      _I2C1_StopSend
 ---------------------------------------------------------------------------------
 (9) _I2C1_ReadStart                                       0     0      0      44
                i2_I2C1_AddrTransmit
                  i2_I2C1_CounterSet
                   i2_I2C1_StartSend
 ---------------------------------------------------------------------------------
 (10) i2_I2C1_StartSend                                    0     0      0       0
 ---------------------------------------------------------------------------------
 (10) i2_I2C1_AddrTransmit                                 1     1      0      22
                                              0 COMRAM     1     1      0
 ---------------------------------------------------------------------------------
 (9) _I2C1_Close                                           0     0      0       0
                   _I2C1_BufferClear
               _I2C1_ErrorFlagsClear
               _I2C1_InterruptsClear
 ---------------------------------------------------------------------------------
 (8) _I2C1_ERROR_ISR                                       0     0      0      37
                                NULL *
                      _I2C1_BusReset
               _I2C1_DefaultCallback *
                        _I2C1_IsAddr
                      _I2C1_IsBusCol
                  _I2C1_IsBusTimeOut
                        _I2C1_IsData
                        _I2C1_IsNack
                      _I2C1_StopSend
 ---------------------------------------------------------------------------------
 (9) _I2C1_StopSend                                        0     0      0      37
                    _I2C1_CounterGet
                  _I2C1_DataTransmit
                _I2C1_RestartDisable
                  i2_I2C1_CounterSet
 ---------------------------------------------------------------------------------
 (10) i2_I2C1_CounterSet                                   1     1      0      22
                                              0 COMRAM     1     1      0
 ---------------------------------------------------------------------------------
 (10) _I2C1_RestartDisable                                 0     0      0       0
 ---------------------------------------------------------------------------------
 (9) _I2C1_DataTransmit                                    1     1      0      15
                                              0 COMRAM     1     1      0
 ---------------------------------------------------------------------------------
 (10) _I2C1_CounterGet                                     0     0      0       0
 ---------------------------------------------------------------------------------
 (9) _I2C1_IsNack                                          0     0      0       0
 ---------------------------------------------------------------------------------
 (9) _I2C1_IsData                                          0     0      0       0
 ---------------------------------------------------------------------------------
 (9) _I2C1_IsBusTimeOut                                    0     0      0       0
 ---------------------------------------------------------------------------------
 (9) _I2C1_IsBusCol                                        0     0      0       0
 ---------------------------------------------------------------------------------
 (9) _I2C1_IsAddr                                          0     0      0       0
 ---------------------------------------------------------------------------------
 (9) _I2C1_DefaultCallback                                 0     0      0       0
 ---------------------------------------------------------------------------------
 (9) _I2C1_BusReset                                        0     0      0       0
                   _I2C1_BufferClear
               _I2C1_ErrorFlagsClear
               _I2C1_InterruptsClear
             _I2C1_InterruptsDisable
            i2_I2C1_InterruptsEnable
 ---------------------------------------------------------------------------------
 (10) i2_I2C1_InterruptsEnable                             0     0      0       0
 ---------------------------------------------------------------------------------
 (10) _I2C1_InterruptsDisable                              0     0      0       0
 ---------------------------------------------------------------------------------
 (10) _I2C1_InterruptsClear                                0     0      0       0
 ---------------------------------------------------------------------------------
 (10) _I2C1_ErrorFlagsClear                                0     0      0       0
 ---------------------------------------------------------------------------------
 (10) _I2C1_BufferClear                                    0     0      0       0
 ---------------------------------------------------------------------------------
 (9) NULL(Fake)                                            0     0      0       0
 ---------------------------------------------------------------------------------
 Estimated maximum stack depth 10
 ---------------------------------------------------------------------------------

 Call Graph Graphs:

 _main (ROOT)
   _I2C1_Write *
     _I2C1_IsBusy
     _I2C1_WriteStart
       _I2C1_AddrTransmit
       _I2C1_CounterSet
       _I2C1_RestartEnable
       _I2C1_StartSend
   _SYSTEM_Initialize *
     _CLOCK_Initialize
     _I2C1_Initialize
       _I2C1_CallbackRegister
       _I2C1_InterruptsEnable
     _INTERRUPT_Initialize
       _INT0_SetInterruptHandler
       _INT1_SetInterruptHandler
       _INT2_SetInterruptHandler
     _PIN_MANAGER_Initialize
     _UART1_Initialize
       _UART1_FramingErrorCallbackRegister
       _UART1_OverrunErrorCallbackRegister
       _UART1_ParityErrorCallbackRegister
   _printf *
     _vfprintf
       _vfpfcnvrt
         _fputc
           _putch
             _UART1_IsTxReady
             _UART1_Write

 _INTERRUPT_InterruptManager (ROOT)
   _I2C1_ERROR_ISR
     NULL(Fake) *
     _I2C1_BusReset *
       _I2C1_BufferClear
       _I2C1_ErrorFlagsClear
       _I2C1_InterruptsClear
       _I2C1_InterruptsDisable
       i2_I2C1_InterruptsEnable
     _I2C1_DefaultCallback *
     _I2C1_IsAddr *
     _I2C1_IsBusCol *
     _I2C1_IsBusTimeOut *
     _I2C1_IsData *
     _I2C1_IsNack *
     _I2C1_StopSend *
       _I2C1_CounterGet
       _I2C1_DataTransmit
       _I2C1_RestartDisable
       i2_I2C1_CounterSet
   _I2C1_ISR
     _I2C1_Close
       _I2C1_BufferClear
       _I2C1_ErrorFlagsClear
       _I2C1_InterruptsClear
     _I2C1_ReadStart
       i2_I2C1_AddrTransmit
       i2_I2C1_CounterSet
       i2_I2C1_StartSend
     _I2C1_RestartDisable
     _I2C1_StopSend
   _I2C1_RX_ISR
     _I2C1_DataReceive
   _I2C1_TX_ISR
     _I2C1_DataTransmit

 Address spaces:
Name               Size   Autos  Total    Cost      Usage
BIGRAM            1FFF      0       0      69        0.0%
EEDATA             400      0       0       0        0.0%
BITBIGSFRlllhhh    160      0       0      87        0.0%
BITBIGSFRhhllh     14C      0       0      79        0.0%
BITBIGSFR_1        100      0       0      68        0.0%
BITBANK36          100      0       0      66        0.0%
BANK36             100      0       0      67        0.0%
BITBANK35          100      0       0      64        0.0%
BANK35             100      0       0      65        0.0%
BITBANK34          100      0       0      62        0.0%
BANK34             100      0       0      63        0.0%
BITBANK33          100      0       0      60        0.0%
BANK33             100      0       0      61        0.0%
BITBANK32          100      0       0      58        0.0%
BANK32             100      0       0      59        0.0%
BITBANK31          100      0       0      56        0.0%
BANK31             100      0       0      57        0.0%
BITBANK30          100      0       0      54        0.0%
BANK30             100      0       0      55        0.0%
BITBANK29          100      0       0      52        0.0%
BANK29             100      0       0      53        0.0%
BITBANK28          100      0       0      50        0.0%
BANK28             100      0       0      51        0.0%
BITBANK27          100      0       0      48        0.0%
BANK27             100      0       0      49        0.0%
BITBANK26          100      0       0      46        0.0%
BANK26             100      0       0      47        0.0%
BITBANK25          100      0       0      44        0.0%
BANK25             100      0       0      45        0.0%
BITBANK24          100      0       0      42        0.0%
BANK24             100      0       0      43        0.0%
BITBANK23          100      0       0      40        0.0%
BANK23             100      0       0      41        0.0%
BITBANK22          100      0       0      38        0.0%
BANK22             100      0       0      39        0.0%
BITBANK21          100      0       0      36        0.0%
BANK21             100      0       0      37        0.0%
BITBANK20          100      0       0      34        0.0%
BANK20             100      0       0      35        0.0%
BITBANK19          100      0       0      32        0.0%
BANK19             100      0       0      33        0.0%
BITBANK18          100      0       0      30        0.0%
BANK18             100      0       0      31        0.0%
BITBANK17          100      0       0      28        0.0%
BANK17             100      0       0      29        0.0%
BITBANK16          100      0       0      26        0.0%
BANK16             100      0       0      27        0.0%
BITBANK15          100      0       0      24        0.0%
BANK15             100      0       0      25        0.0%
BITBANK14          100      0       0      22        0.0%
BANK14             100      0       0      23        0.0%
BITBANK13          100      0       0      20        0.0%
BANK13             100      0       0      21        0.0%
BITBANK12          100      0       0      18        0.0%
BANK12             100      0       0      19        0.0%
BITBANK11          100      0       0      16        0.0%
BANK11             100      0       0      17        0.0%
BITBANK10          100      0       0      14        0.0%
BANK10             100      0       0      15        0.0%
BITBANK9           100      0       0      12        0.0%
BANK9              100      0       0      13        0.0%
BITBANK8           100      0       0      10        0.0%
BANK8              100      0       0      11        0.0%
BITBANK7           100      0       0       8        0.0%
BANK7              100      0       0       9        0.0%
BITBANK6           100      0       0       6        0.0%
BANK6              100      0       0       7        0.0%
BITBIGSFRllll       AC      0       0      90        0.0%
BITBANK5            A0      0       0       4        0.0%
BANK5               A0      0      20       5       20.0%
BITBIGSFRhhlhhh     78      0       0      77        0.0%
BITCOMRAM           5F      0       0       0        0.0%
COMRAM              5F     2C      56       1       90.5%
BITBIGSFRlllhhh     46      0       0      85        0.0%
BITBIGSFRhhhh       29      0       0      70        0.0%
BITBIGSFRlllhhh     13      0       0      86        0.0%
BITBIGSFRlllhhh     13      0       0      84        0.0%
BITBIGSFRhhhlhh      A      0       0      71        0.0%
BITBIGSFRhhhll       9      0       0      76        0.0%
BITBIGSFRhhhlhh      5      0       0      73        0.0%
BITBIGSFRhhhlhl      4      0       0      75        0.0%
BITBIGSFRlhh         4      0       0      81        0.0%
BITBIGSFRhhlll       4      0       0      80        0.0%
BITBIGSFRhhlhhh      3      0       0      78        0.0%
BITBIGSFRhhhlhh      2      0       0      72        0.0%
BITBIGSFRhhhlhh      2      0       0      74        0.0%
BITBIGSFRllhh        1      0       0      83        0.0%
BITBIGSFRlllhhl      1      0       0      88        0.0%
BITBIGSFRlllhl       1      0       0      89        0.0%
BITBIGSFRlhl         1      0       0      82        0.0%
BIGSFR_1             0      0       0     200        0.0%
BIGSFR               0      0       0     200        0.0%
BITSFR_6             0      0       0     200        0.0%
SFR_6                0      0       0     200        0.0%
BITSFR_5             0      0       0     200        0.0%
SFR_5                0      0       0     200        0.0%
BITSFR_4             0      0       0     200        0.0%
SFR_4                0      0       0     200        0.0%
BITSFR_3             0      0       0     200        0.0%
SFR_3                0      0       0     200        0.0%
BITSFR_2             0      0       0     200        0.0%
SFR_2                0      0       0     200        0.0%
BITSFR_1             0      0       0     200        0.0%
SFR_1                0      0       0     200        0.0%
BITSFR               0      0       0     200        0.0%
SFR                  0      0       0     200        0.0%
STACK                0      0       0       2        0.0%
NULL                 0      0       0       0        0.0%
ABS                  0      0      76      91        0.0%
DATA                 0      0      76       3        0.0%
CODE                 0      0       0       0        0.0%


Microchip Technology PIC18 Macro Assembler V2.46 build 20240104201356 
Symbol Table                                                                                   Thu Jun 13 20:34:49 2024

                               ?i2_I2C1_CounterSet 0501                                     I2C1_Write@data 0507  
                           ??_I2C1_DefaultCallback 0501                                    ??_I2C1_IsBusCol 0501  
                                  ??_I2C1_BusReset 0501                                ??i2_I2C1_CounterSet 0501  
                                              l204 313A                                                l141 2E80  
                                              l213 316E                                                l142 2E82  
                                              l126 2D60                                                l119 2CC4  
                                              l146 2FCA                                                _I2C 0556  
                                              l325 2DA0                                                l238 309C  
                                              l183 2E56                                                l192 3168  
                                              l265 3004                                                l361 3108  
                                              l195 3142                                                l531 29D6  
                                              l348 3116                                                l508 2822  
                                              l532 29D6                                                l374 30FA  
                                              l278 301A                                                l631 2C60  
                                              l711 2FE8                                                l724 2FA8  
                                              l732 2F64                                                l728 2F86  
                                              l682 2EAA                                                l683 2EAC  
                                              l699 3132                                                u200 2E30  
                                              u201 2E2C                                                u210 2E46  
                                              u211 2E42                                                u800 29F0  
                                              u801 29EC                                                u810 2A02  
                                              u811 29FE                                                u820 2A2A  
                                              u900 2654                                                u821 2A26  
                                              u901 2650                                                u830 2A60  
                                              u910 2696                                                u831 2A5C  
                                              u911 2692                                                u840 2FBE  
                                              u920 26A6                                                u841 2FBA  
                                              u921 26A2                                                u850 2F9C  
                                              u770 2E98                                                u930 26E0  
                                              u851 2F98                                                u771 2E94  
                                              u931 26DC                                                u940 2E6C  
                                              u860 2F7A                                                u780 2EA6  
                                              u941 2E68                                                u861 2F76  
                                              u781 2EA2                                                u950 2E7C  
                                              u870 2F58                                                u790 2FE2  
                                              u951 2E78                                                u871 2F54  
                                              u791 2FDE                                                u880 25BC  
                                              u881 25B8                                                u890 2602  
                                              u891 25FE                                                u980 2D0A  
                                              u981 2D06                                                u990 2D28  
                                              u991 2D24                         ??_INT0_SetInterruptHandler 0507  
                        __end_of_I2C1_DataTransmit 315C                                                tosl 04FD  
                                              wreg 04E8                                     _UART1_IsTxDone 0000  
                         _UART1_ParityErrorHandler 053A                                     _UART1_ErrorGet 0000  
                                 __end_of_I2C1_ISR 2BDA                                               l2201 25BC  
                                             l2211 2602                                               l2203 25C6  
                                             l2221 265C                                               l2213 263A  
                                             l2205 25D2                                               l1413 2F42  
                                             l2311 2C28                                               l2143 2E84  
                                             l2231 26AA                                               l2223 2660  
                                             l2215 263E                                               l2207 25D6  
                                             l2321 2D68                                               l2313 2C38  
                                             l2145 2E88                                               l2153 312E  
                                             l2233 26CC                                               l2225 2672  
                                             l2217 2644                                               l2241 2700  
                                             l2209 25E2                                               l1531 313E  
                                             l1515 308A                                               l2323 2D78  
                                             l2315 2C48                                               l2147 2E98  
                                             l2155 2FCE                                               l2171 2A2A  
                                             l2163 29DE                                               l2235 26CE  
                                             l2227 2684                                               l2219 2654  
                                             l2331 2CC6                                               l1452 273A  
                                             l1533 3164                                               l2341 2D14  
                                             l2261 2C94                                               l2181 310A  
                                             l2325 2D7A                                               l2317 2C58  
                                             l2309 2BDA                                               l2149 2EA6  
                                             l2157 2FCE                                               l2173 2A60  
                                             l2165 29F0                                               l2229 2696  
                                             l2245 270E                                               l2333 2CCE  
                                             l1535 316A                                               l2351 2D40  
                                             l2343 2D14                                               l2271 2CA4  
                                             l2263 2C96                                               l2255 2C62  
                                             l2183 30FC                                               l2327 2D8C  
                                             l2319 2D62                                               l2191 2F66  
                                             l2431 3012                                               l2159 2FE2  
                                             l1471 2AA6                                               l2167 2A02  
                                             l2239 26E4                                               l2335 2CEA  
                                             l2511 2920                                               l1529 3136  
                                             l2353 2D48                                               l2345 2D28  
                                             l2177 2FAA                                               l2281 2CB0  
                                             l2273 2CA6                                               l2265 2C98  
                                             l2257 2C8C                                               l2185 30EE  
                                             l2329 2D8E                                               l2193 2F7A  
                                             l2433 3016                                               l2169 2A0C  
                                             l2337 2D0A                                               l2513 2928  
                                             l2291 2E7C                                               l2355 2D5C  
                                             l2347 2D2C                                               l2179 2FBE  
                                             l2283 2CB2                                               l2275 2CA8  
                                             l2267 2CA0                                               l2259 2C90  
                                             l2187 2F88                                               l2195 2F44  
                                             l2427 3006                                               l1459 2D12  
                                             l2435 2F22                                               l2531 299E  
                                             l2523 2930                                               l2515 2928  
                                             l2507 2904                                               l2357 2D60  
                                             l2349 2D38                                               l2285 2CB4  
                                             l2277 2CAA                                               l2269 2CA2  
                                             l2189 2F9C                                               l2197 2F58  
                                             l2429 300E                                               l2437 2F2A  
                                             l2533 29AC                                               l2525 2972  
                                             l2517 292C                                               l2509 2908  
                                             l2287 2E58                                               l1671 2E36  
                                             l2279 2CAC                                               l2199 2594  
                                             l2535 29BC                                               l2527 2982  
                                             l2289 2E6C                                               l1673 2E46  
                                             l2537 29BE                                               l2529 298E  
                                             l1675 2E4A                                               l1667 2E1E  
                                             l1771 2756                                               l2539 29CE  
                                             l1677 2E52                                               l1669 2E30  
                                             l1765 2FEA                                               l1781 27AA  
                                             l1773 275C                                               l1791 27B8  
                                             l1783 27AC                                               l1775 2766  
                                             l1767 273C                                               l1793 27BA  
                                             l1785 27AE                                               l1777 276A  
                                             l1769 2754                                               l1795 27BC  
                                             l1787 27B0                                               l1779 2770  
                                             l1797 27BE                                               l1789 27B6  
                                             l1799 27C4                                               STR_1 257A  
                                             STR_2 258F                                               STR_3 2588  
                                             STR_4 2567                                  _I2C1_Deinitialize 0000  
                                             u1307 29B2                                               u1260 2982  
                                             u1317 2C9A                                               u1261 297E  
                                             _LATA 04BE                                               u1270 299E  
                                             _LATB 04BF                                               u1271 299A  
                                             _LATC 04C0                                               u1280 29CE  
                                             _LATD 04C1                                               u1281 29CA  
                                             _LATE 04C2                                               u1258 2958  
                                             _LATF 04C3                                               u1259 2972  
                                             u1297 2912                                               _WPUA 0401  
                                             _WPUB 0409                                               _WPUC 0411  
                                             _WPUD 0419                                               _WPUE 0421  
                                             _WPUF 0429                                   ??_I2C1_ReadStart 0502  
                                  ??_I2C1_StopSend 0502                                  I2C1_Write@address 0505  
                                             _dbuf 0560                                               _main 2904  
                                             _prec 0551                                               fsr1h 04E2  
                                             fsr2h 04DA                                               indf2 04DF  
                                             fsr1l 04E1                                               fsr2l 04D9  
                        __end_ofi2_I2C1_CounterSet 3154                          ?_INT2_SetInterruptHandler 0504  
                                ?i2_I2C1_StartSend 0501                                               start 001A  
                                  _UART1_IsRxReady 0000                                    _UART1_IsTxReady 2E84  
                               ??i2_I2C1_StartSend 0501                                       ___param_bank 0000  
                                       _i2c1Status 052D                                  ??_I2C1_CounterGet 0501  
                                ??_I2C1_CounterSet 0504                                  ?_I2C1_BufferClear 0501  
                                __end_of_I2C1_Host 2567                                              ?_main 0501  
                         i2I2C1_CounterSet@counter 0501                                              _U1P1H 02A6  
                                            _U1P2H 02A8                                              _U1P1L 02A5  
                                            _U1P3H 02AA                                              _U1P2L 02A7  
                                            _U1P3L 02A9                                              _IOCAF 0407  
                                            _IOCBF 040F                                              _IOCCF 0417  
                                            _IOCAN 0406                                              _IOCEF 0427  
                                            _IOCAP 0405                                              _IOCBN 040E  
                                            _IOCBP 040D                                              _IOCCN 0416  
                                            _IOCCP 0415                                              _IOCEN 0426  
                                            _IOCEP 0425                                              _U1UIR 02B1  
                                            _U1RXB 02A1                                              i2l201 3174  
                                            i2l210 2E1C                                              _U1TXB 02A3  
                                            i2l204 3152                                              i2l220 2F20  
                                            i2l223 3030                                              i2l207 3186  
                                            i2l151 2BB4                                              i2l232 3046  
                                            i2l216 3180                                              i2l241 30EC  
                                            i2l250 312A                                              i2l226 3072  
                                            i2l330 2AD4                                              i2l235 3088  
                                            i2l171 30C4                                              i2l244 3162  
                                            i2l156 2BD8                                              i2l332 2AF8  
                                            i2l229 305C                                              i2l165 28D4  
                                            i2l149 2B70                                              i2l333 2B40  
                                            i2l238 30D8                                              i2l174 30B0  
                                            i2l334 2B1C                                              i2l247 3120  
                                            i2l168 2902                                              i2l192 317A  
                                            i2l186 2ED4                                              i2l178 2EFA  
                                            i2l338 2B40                                              i2l195 314A  
                                            i2l189 3188                                              i2l198 315A  
                               ??_I2C1_BufferClear 0501                                              _OSCEN 00B3  
                                            _UART1 2501                                       vfpfcnvrt@fmt 0511  
                             _UART1_IsTxReady$1652 0504                                              _TRISA 04C6  
                                            _TRISB 04C7                                              _TRISC 04C8  
                                            _TRISD 04C9                                              _TRISE 04CA  
                                            _TRISF 04CB                                   ??_I2C1_StartSend 0504  
                                ??_I2C1_Initialize 0507         __end_of_UART1_FramingErrorCallbackRegister 2FAA  
             ??_UART1_FramingErrorCallbackRegister 0507                ?_UART1_FramingErrorCallbackRegister 0504  
               _UART1_FramingErrorCallbackRegister 2F88                                              _flags 0555  
                          ??_I2C1_CallbackRegister 0507                                              _fputc 29DE  
                                            _width 054F                                              _putch 2FCC  
                         _INT1_SetInterruptHandler 30FC                           ??_I2C1_InterruptsDisable 0501  
                                            pclath 04FA                                              pclatu 04FB  
                                            tablat 04F5                              I2C1_DataTransmit@data 0501  
                                            status 04D8                                       ??_I2C1_Close 0501  
                                     ??_I2C1_Write 050B                                    __initialization 2DA2  
                             _UART1_TransmitEnable 0000                                       __end_of_main 29DE  
                                _I2C1_IsBusTimeOut 3048                                 ?_I2C1_IsBusTimeOut 0501  
                      ?_INTERRUPT_InterruptManager 0501                                       ?_UART1_Write 0501  
                                           ??_main 0529                                      __activetblptr 0003  
                              ??_I2C1_IsBusTimeOut 0501                                   _UART1_Initialize 2BDA  
 UART1_ParityErrorCallbackRegister@callbackHandler 0504  UART1_OverrunErrorCallbackRegister@callbackHandler 0504  
UART1_FramingErrorCallbackRegister@callbackHandler 0504               I2C1_CallbackRegister@callbackHandler 0504  
                               __end_of_I2C1_Close 2ED6                              _I2C1_InterruptsEnable 308A  
                                           ?_fputc 0506                                             _ACTCON 00AC  
                               __end_of_I2C1_Write 2D62                                             _ANSELA 0400  
                                           ?_putch 0501                                             _ANSELB 0408  
                                           _ANSELC 0410                                             _ANSELD 0418  
                                           _ANSELE 0420                                             _ANSELF 0428  
                                           _RB1I2C 0289                                             _RB2I2C 0288  
                                           _U1CON0 02AB                                             _U1CON1 02AC  
                                           _U1CON2 02AD                                             _RC3I2C 0287  
                                           _RC4I2C 0286                                             _U1BRGH 02AF  
                                           _U1FIFO 02B0                                             _U1BRGL 02AE  
                                           _RC3PPS 0214                                             _RC4PPS 0215  
                                           _ODCONA 0402                                             _ODCONB 040A  
                                           _RF0PPS 0229                                             _ODCONC 0412  
                                           _ODCOND 041A                                             _ODCONE 0422  
                                           _ODCONF 042A                                             i2l2301 2EF6  
                                           i2l2303 2EFC                                             i2l1521 30DA  
                                           i2l2305 2F00                                             i2l2401 2870  
                                           i2l1523 30E2                                             i2l2307 2F14  
                                           i2l2411 28A8                                             i2l2403 2874  
                                           i2l2251 3146                                             i2l1541 3122  
                                           i2l1525 317C                                             i2l2253 314E  
                                           i2l2421 28CC                                             i2l2413 28AC  
                                           i2l2405 2878                                             i2l2501 2B14  
                                           i2l1543 3128                                             i2l1711 2DE8  
                                           i2l1703 305E                                             i2l1527 3156  
                                           i2l2407 2880                                             i2l2423 28D8  
                                           i2l2503 2B2A                                             i2l1537 315C  
                                           i2l1625 30C6                                             i2l1721 2DFC  
                                           i2l1713 2DEC                                             i2l1545 3182  
                                           i2l2425 28E8                                             i2l2409 2894  
                                           i2l2417 28B4                                             i2l2361 2B4A  
                                           i2l2505 2B38                                             i2l1539 3118  
                                           i2l1731 2E0C                                             i2l1723 2DFE  
                                           i2l1715 2DF0                                             i2l1707 2DE0  
                                           i2l2419 28C8                                             i2l1619 3176  
                                           i2l2371 2B9C                                             i2l2363 2B5A  
                                           i2l1741 2E18                                             i2l1733 2E0E  
                                           i2l1725 2E00                                             i2l1717 2DF4  
                                           i2l1709 2DE4                                             i2l2373 2BA0  
                                           i2l2365 2B68                                             i2l1743 2E1A  
                                           i2l1735 2E10                                             i2l1727 2E08  
                                           i2l1719 2DF8                                             i2l2391 2838  
                                           i2l2295 2ED6                                             i2l2383 2BC2  
                                           i2l2375 2BA2                                             i2l2367 2B7E  
                                           i2l1737 2E12                                             i2l1729 2E0A  
                                           i2l1745 3074                                             i2l1753 3032  
                                           i2l2393 283C                                             i2l2297 2EE8  
                                           i2l2385 2BD0                                             i2l2377 2BA4  
                                           i2l2369 2B8C                                             i2l1761 3170  
                                           i2l1921 30C0                                             i2l1739 2E14  
                                           i2l2395 2840                                             i2l1691 2EC0  
                                           i2l2299 2EEE                                             i2l2387 2BD4  
                                           i2l2379 2BAC                                             i2l1923 309E  
                                           i2l2491 2ABE                                             i2l1757 3048  
                                           i2l1749 301C                                             i2l2397 2848  
                                           i2l2389 2824                                             i2l1693 2EC8  
                                           i2l2493 2ACC                                             i2l2399 285C  
                                           i2l1695 2ED0                                             i2l1687 2EAE  
                                           i2l1919 30B2                                             i2l2495 2AE2  
                                           i2l1689 2EB8                                             i2l2497 2AF0  
                                           i2l2489 2AB0                                             i2l2499 2B06  
                                           _INLVLA 0404                                             _INLVLB 040C  
                                           _INLVLC 0414                                             _INLVLD 041C  
                                           _INLVLE 0424                                             _INLVLF 042C  
                          __end_of_UART1_IsTxReady 2EAE                                             _OSCFRQ 00B1  
                        __end_of_I2C1_IsBusTimeOut 305E                                       vfprintf@cfmt 0523  
                               _I2C1_RestartEnable 316A                                          ?_I2C1_ISR 0501  
                                           clear_0 2DBA                                             clear_1 2DC6  
                                           isa$std 0001                                             _printf 2F22  
                                ?_CLOCK_Initialize 0501                                      main@respuesta 052B  
                                           fputc@c 0506                       _INT2_DefaultInterruptHandler 0000  
                                     __pdataCOMRAM 0556                                 ??_CLOCK_Initialize 0504  
                              ?_I2C1_RestartEnable 0501                                  ??_I2C1_WriteStart 0505  
                                     __mediumconst 0000                                             tblptrh 04F7  
                                           tblptrl 04F6                                             tblptru 04F8  
       __end_of_UART1_OverrunErrorCallbackRegister 2F88               ??_UART1_OverrunErrorCallbackRegister 0507  
              ?_UART1_OverrunErrorCallbackRegister 0504                 _UART1_OverrunErrorCallbackRegister 2F66  
                                 __end_of_vfprintf 2D14           INT2_SetInterruptHandler@InterruptHandler 0504  
         INT1_SetInterruptHandler@InterruptHandler 0504           INT0_SetInterruptHandler@InterruptHandler 0504  
                                _UART1_AutoBaudSet 0000                                  _SYSTEM_Initialize 3006  
                                    ??_I2C1_RX_ISR 0501                                         __accesstop 0560  
                          __end_of__initialization 2DDA                                      ??_I2C1_TX_ISR 0502  
                                    ??_I2C1_IsAddr 0501                                      ??_I2C1_IsData 0501  
                                    ??_I2C1_IsNack 0501                                      ??_I2C1_IsBusy 0504  
                               ?_SYSTEM_Initialize 0501                                      ___rparam_used 0001  
                             ??_I2C1_RestartEnable 0504                                      __end_of_UART1 2549  
                                   __pcstackCOMRAM 0501                                ??_SYSTEM_Initialize 0507  
                            _UART1_TransmitDisable 0000                                      __end_of_fputc 2AA8  
                                  _I2C1_IsBusy$603 0504                                      __end_of_putch 2FEA  
                                       ??_I2C1_ISR 0502                   __end_of_INT2_SetInterruptHandler 30FC  
                        _UART1_FramingErrorHandler 0540                             ?_I2C1_InterruptsEnable 0501  
                                          ??_fputc 050A                          __end_of_SYSTEM_Initialize 301C  
                                          ??_putch 0505                                         __pbssBANK5 0560  
                                 ?_UART1_IsTxReady 0501                              _INT0_InterruptHandler 0549  
                                  _I2C1_CounterGet 3182                                    _I2C1_CounterSet 3134  
                                          IVTBASEH 045E                                            IVTBASEL 045D  
                                          IVTBASEU 045F                                 _UART1_Deinitialize 0000  
                              __end_of_I2C1_RX_ISR 30C6                                __end_of_I2C1_TX_ISR 30B2  
                              __end_of_I2C1_IsAddr 308A                                __end_of_I2C1_IsData 3048  
                              __end_of_I2C1_IsNack 3032                                __end_of_I2C1_IsBusy 2E84  
                                          _I2C1CLK 029C                                            _I2C1CNT 028D  
                                          _I2C1ERR 0297                                            _I2C1PIE 029B  
                                          _I2C1PIR 029A                                            _I2C1RXB 028B  
                                          _I2C1TXB 028C                                    _I2C1_Initialize 2C62  
                           _I2C1_InterruptsDisable 30DA                              __end_of_I2C1_IsBusCol 3074  
                                          ?_printf 0524                              __end_of_I2C1_BusReset 2E1E  
                                          _U1ERRIE 02B3                                            _U1ERRIR 02B2  
                                        _I2C1STAT1 0299                         ??_INT1_SetInterruptHandler 0507  
                                          _U1RXCHK 02A2                                            _U1TXCHK 02A4  
                                          _U1RXPPS 0272                                          _I2C1_Read 0000  
                                        _I2C1_Host 2549                                            _OSCCON1 00AD  
                                          _OSCCON3 00AF                            i2_I2C1_InterruptsEnable 30C6  
                                          i2u24_40 3070                                            i2u24_41 306A  
                                          i2u24_46 3072                                            i2u25_40 3086  
                                          i2u25_41 3080                                            i2u26_40 3088  
                                          i2u27_40 302E                                            i2u27_41 3028  
                                          i2u27_46 3030                                            i2u28_40 3044  
                                          i2u28_41 303E                                            i2u28_46 3046  
                                          i2u29_40 305A                                            i2u29_41 3054  
                                          i2u29_46 305C                                            _OSCTUNE 00B0  
                                          i2u96_40 2EE8                                            i2u96_41 2EE4  
                                          i2u97_40 2F14                                            i2u97_41 2F10  
                                          _SLRCONA 0403                                            _SLRCONB 040B  
                                          _SLRCONC 0413                                            _SLRCOND 041B  
                                          _SLRCONE 0423                                            _SLRCONF 042B  
                    __end_of_I2C1_CallbackRegister 2FCC                          ?_INT0_SetInterruptHandler 0504  
                            __end_of_I2C1_StopSend 2F22                                            __Hparam 0000  
                                          __Lparam 0000                           __end_of_UART1_Initialize 2C62  
                                        ?_vfprintf 051E                                       __psmallconst 2500  
                     __end_of_I2C1_InterruptsClear 3164                                            __pcinit 2DA2  
                                          __ramtop 2500                                            __ptext0 2904  
                                          __ptext1 2F22                                            __ptext2 2CC6  
                                          __ptext3 2594                                            __ptext4 29DE  
                                          __ptext5 2FCC                                            __ptext6 312C  
                                          __ptext7 2E84                                            __ptext8 3006  
                                          __ptext9 2BDA                               I2C1_Write@dataLength 0509  
                              _I2C1_RestartDisable 317C                                        _I2C1ERRbits 0297  
                         ??_PIN_MANAGER_Initialize 0504                                        _I2C1PIEbits 029B  
                                      _I2C1PIRbits 029A                            __end_of_I2C1_CounterGet 3188  
                          __end_of_I2C1_CounterSet 313C                                            main@var 052C  
                             end_of_initialization 2DDA                                          _U1UIRbits 02B1  
                         _INT2_SetInterruptHandler 30EE                                          _PIR10bits 04B8  
                                          fputc@fp 0508                                        _I2C1_RX_ISR 30B2  
                                      _I2C1_TX_ISR 309E                                        _I2C1_IsAddr 3074  
                                      _I2C1_IsData 3032                                        _I2C1_IsNack 301C  
                                      _I2C1_IsBusy 2E58                              I2C1_AddrTransmit@addr 0504  
                             ?_I2C1_RestartDisable 0501                            __end_of_I2C1_Initialize 2CC6  
                                __end_of_vfpfcnvrt 273C                                            postdec2 04DD  
                                          postinc0 04EE                                            postinc1 04E6  
                                          postinc2 04DE                                   vfpfcnvrt@convarg 0517  
                                 _I2C1_DataReceive 3170                                    _I2C1_WriteStart 2E1E  
                                       ??_vfprintf 0523                                  UART1_Write@txData 0504  
                 _UART1_DefaultParityErrorCallback 0000                              _INT1_InterruptHandler 0546  
                        ??i2_I2C1_InterruptsEnable 0501                              ??_I2C1_RestartDisable 0501  
                     __end_of_INTERRUPT_Initialize 2DA2                                     _I2C1_ERROR_ISR 2824  
                     _INT0_DefaultInterruptHandler 0000                                        vfpfcnvrt@ap 0513  
                                      vfpfcnvrt@cp 051C                                        vfpfcnvrt@fp 050F  
                                    __pidataCOMRAM 318A                                i2_I2C1_AddrTransmit 3144  
                                 i2_I2C1_StartSend 3176                            ??_I2C1_InterruptsEnable 0504  
                                   __end_of_printf 2F44                                start_initialization 2DA2  
                                 ?_I2C1_CounterGet 0501                                   ?_I2C1_CounterSet 0501  
                                      putch@txData 0505                                         ivt0x8_base 0008  
                                 _I2C1_BufferClear 3122                               ?i2_I2C1_AddrTransmit 0501  
                             _I2C1_InterruptsClear 315C                            __end_of_I2C1_WriteStart 2E58  
                                 ?_I2C1_Initialize 0501                             __end_of_I2C1_ERROR_ISR 2904  
                          ?_I2C1_InterruptsDisable 0501                                        vfprintf@fmt 0520  
                                         ??_printf 0527                       __end_of_I2C1_ErrorFlagsClear 3122  
                                      __pbssCOMRAM 052D                   __end_of_INT0_SetInterruptHandler 3118  
                     __end_of_I2C1_DefaultCallback 318A                              ??i2_I2C1_AddrTransmit 0501  
                            ?_I2C1_InterruptsClear 0501                            i2I2C1_AddrTransmit@addr 0501  
                            _INT2_InterruptHandler 0543                     __end_of_I2C1_InterruptsDisable 30EE  
                           _PIN_MANAGER_Initialize 273C                                    ?_I2C1_ERROR_ISR 0501  
                                ?_UART1_Initialize 0501                                     _I2C1_ReadStart 2ED6  
                                         _I2C1ADB1 028F                                 ??_UART1_Initialize 0507  
                                         _I2C1CON0 0294                                           _I2C1CON1 0295  
                                         _I2C1CON2 0296                                           _I2C1_ISR 2B4A  
                                 _uart1RxLastError 0553                                      ??_UART1_Write 0504  
                     ??_INTERRUPT_InterruptManager 0502                                        __smallconst 2500  
                       ??_INT2_SetInterruptHandler 0507                             I2C1_CounterSet@counter 0504  
                         __end_of_I2C1_DataReceive 3176                                        _U1ERRIRbits 02B2  
                             _INTERRUPT_Initialize 2D62                                         _I2C1SDAPPS 0270  
                                       _I2C1SCLPPS 0271                                   _CLOCK_Initialize 2FEA  
                                   _I2C1_StartSend 3164                                       ?_I2C1_RX_ISR 0501  
                                     ?_I2C1_TX_ISR 0501                                       ?_I2C1_IsAddr 0501  
                                     ?_I2C1_IsData 0501                                       ?_I2C1_IsNack 0501  
                                     ?_I2C1_IsBusy 0501                              _I2C1_CallbackRegister 2FAA  
                        ?_INT1_SetInterruptHandler 0504                                   ?_I2C1_WriteStart 0501  
                                         _PIE7bits 04A5                                         _I2C1_Close 2EAE  
                           __end_of_I2C1_ReadStart 2EFC                                           i2u100_40 2B5A  
                                         i2u100_41 2B56                                           i2u101_40 2B68  
                                         i2u101_41 2B64                                           i2u110_40 2894  
                                         i2u102_40 2B7E                                           i2u110_41 2890  
                                         i2u102_41 2B7A                                           i2u111_40 28A8  
                                         i2u103_40 2B8C                                           i2u111_41 28A4  
                                         i2u103_41 2B88                                           i2u112_40 28C8  
                                         i2u104_40 2B9C                                           i2u120_40 2AF0  
                                         i2u112_41 28C4                                           i2u104_41 2B98  
                                         i2u120_41 2AEC                                           i2u113_40 28E8  
                                         i2u105_40 2BC2                                           i2u121_40 2B06  
                                         i2u113_41 28E4                                           i2u105_41 2BBE  
                                         i2u121_41 2B02                                           i2u106_40 2BD0  
                                         i2u122_40 2B14                                           i2u106_41 2BCC  
                                         i2u122_41 2B10                                           i2u114_48 28EE  
                                         i2u107_40 2838                                           i2u123_40 2B2A  
                                         i2u114_49 2902                                           i2u107_41 2834  
                                         i2u123_41 2B26                                           i2u108_40 285C  
                                         i2u124_40 2B38                                           i2u108_41 2858  
                                         i2u124_41 2B34                                           i2u132_47 2E02  
                                         i2u109_40 2870                                           i2u117_40 2ABE  
                                         i2u109_41 286C                                           i2u117_41 2ABA  
                                         i2u118_40 2ACC                                           i2u118_41 2AC8  
                                         i2u119_40 2AE2                                           i2u119_41 2ADE  
                                    _I2C1STAT0bits 0298                                      _I2C1STAT1bits 0299  
                                         _PIR1bits 04AF                                           _PIR6bits 04B4  
                                       _I2C1_Write 2D14                                           _PIR7bits 04B5  
                                   _I2C1_WriteRead 0000                                          _vfpfcnvrt 2594  
                              __end_of_UART1_Write 3134                                         vfpfcnvrt@c 051D  
                                       vfpfcnvrt@x 051B                                        _INTCON0bits 04D6  
                            ?_INTERRUPT_Initialize 0501                             __end_of_I2C1_StartSend 316A  
                           ??_I2C1_InterruptsClear 0501                           _INT0_SetInterruptHandler 310A  
                         __end_ofi2_I2C1_StartSend 317C                               _I2C1_ErrorFlagsClear 3118  
                                         __Hrparam 0000                                    ?_I2C1_ReadStart 0501  
                                       vfprintf@ap 0521                                           __Lrparam 0000  
                                       vfprintf@fp 051E                                      _I2C1_Callback 054C  
                         __end_of_I2C1_BufferClear 312C                                         ?_vfpfcnvrt 050F  
                             _I2C1_DefaultCallback 3188                                      _I2C1_IsBusCol 305E  
                                ??_UART1_IsTxReady 0504                                      _I2C1_BusReset 2DE0  
                _UART1_DefaultFramingErrorCallback 0000                      __end_of_I2C1_InterruptsEnable 309E  
                                     _I2C1CON0bits 0294                                       _I2C1CON1bits 0295  
                                         __pivt0x8 0008                                      _I2C1_ErrorGet 0000  
                                         __ptext10 2F44                                           __ptext11 2F66  
                                         __ptext20 2FAA                                           __ptext12 2F88  
                                         __ptext21 2FEA                                           __ptext13 273C  
                                         __ptext30 309E                                           __ptext22 2D14  
                                         __ptext14 2D62                                           __ptext31 30B2  
                                         __ptext23 2E1E                                           __ptext15 30EE  
                                         __ptext40 314C                                           __ptext32 3170  
                                         __ptext24 3164                                           __ptext16 30FC  
                                         __ptext41 317C                                           __ptext33 2B4A  
                                         __ptext25 316A                                           __ptext17 310A  
                                         __ptext50 2DE0                                           __ptext42 3154  
                                         __ptext34 2ED6                                           __ptext26 3134  
                                         __ptext18 2C62                                           __ptext51 30C6  
                                         __ptext43 3182                                           __ptext35 3176  
                                         __ptext27 313C                                           __ptext19 308A  
                                         __ptext52 30DA                                           __ptext44 301C  
                                         __ptext36 3144                                           __ptext28 2E58  
                                         __ptext53 315C                                           __ptext45 3032  
                                         __ptext37 2EAE                                           __ptext29 2AA8  
                                         __ptext54 3118                                           __ptext46 3048  
                                         __ptext38 2824                                           __ptext55 3122  
                                         __ptext47 305E                                           __ptext39 2EFC  
                                         __ptext48 3074                                           __ptext49 3188  
                                       _U1CON0bits 02AB                                         _U1CON1bits 02AC  
                      __end_of_I2C1_RestartDisable 3182                                    ?_I2C1_StartSend 0501  
                                       _U1FIFObits 02B0                             ?_I2C1_CallbackRegister 0504  
                                _I2C1_AddrTransmit 313C                              ?_I2C1_ErrorFlagsClear 0501  
                                      ?_I2C1_Close 0501                                 ?_I2C1_AddrTransmit 0501  
                                    _I2C1_StopSend 2EFC                                        ?_I2C1_Write 0505  
                        _UART1_OverrunErrorHandler 053D                                           isa$xinst 0000  
                                         _vfprintf 2CC6                           ?i2_I2C1_InterruptsEnable 0501  
                              ??_I2C1_AddrTransmit 0504                 __end_of_INTERRUPT_InterruptManager 2B4A  
                       _INTERRUPT_InterruptManager 2AA8                              ?_I2C1_DefaultCallback 0501  
                                        printf@fmt 0524                                     ?_I2C1_IsBusCol 0501  
                                      _UART1_Write 312C                       _INT1_DefaultInterruptHandler 0000  
                                   ?_I2C1_BusReset 0501                             ??_INTERRUPT_Initialize 0507  
                                         intlevel2 0000                          __end_of_I2C1_AddrTransmit 3144  
                                 ??_I2C1_ERROR_ISR 0502                            ?_PIN_MANAGER_Initialize 0501  
                       __end_of_I2C1_RestartEnable 3170                                     ?_I2C1_StopSend 0501  
                                         printf@ap 0527                                         _UART1_Read 0000  
                                      ??_vfpfcnvrt 0515                           __end_of_CLOCK_Initialize 3006  
                 __end_of_INT1_SetInterruptHandler 310A                  _UART1_DefaultOverrunErrorCallback 0000  
                      __end_ofi2_I2C1_AddrTransmit 314C                                  _I2C1_DataTransmit 3154  
                               ?_I2C1_DataTransmit 0501                                  ?_I2C1_DataReceive 0501  
                   __end_of_PIN_MANAGER_Initialize 2824                             ??_I2C1_ErrorFlagsClear 0501  
        __end_of_UART1_ParityErrorCallbackRegister 2F66                ??_UART1_ParityErrorCallbackRegister 0507  
               ?_UART1_ParityErrorCallbackRegister 0504                  _UART1_ParityErrorCallbackRegister 2F44  
                               ??_I2C1_DataReceive 0501                                _UART1_AutoBaudQuery 0000  
                              ??_I2C1_DataTransmit 0501                                  i2_I2C1_CounterSet 314C  
                  __end_ofi2_I2C1_InterruptsEnable 30DA  
