Microchip MPLAB XC8 Compiler V2.46

Linker command line:

-W-3 \
  --edf=C:\Program Files\Microchip\xc8\v2.46\pic\dat\20240104201356_en.msgs \
  -cn -h+dist/default/debug\Ejemplo6_i2c.X.debug.sym \
  --cmf=dist/default/debug\Ejemplo6_i2c.X.debug.cmf -z -Q18F57Q43 \
  -oC:\Users\DELL\AppData\Local\Temp\xcAs1oo.\driver_tmp_3.o \
  --defsym=__MPLAB_BUILD=1 --fixupoverflow=error \
  -Mdist/default/debug/Ejemplo6_i2c.X.debug.map \
  --md=C:\Users\DELL\AppData\Local\Temp\xcAs1oo.\driver_tmp_0.dat -E1 \
  -ver=XC8 Compiler --acfsm=1493 -ACODE=00h-01FFFFh -ACONST=00h-01FFFFh \
  -ASMALLCONST=02500h-025FFhx475 \
  -AMEDIUMCONST=02500h-0FFFFh,012500h-01FFFFh -ACOMRAM=0501h-055Fh \
  -AABS1=0500h-024FFh -ABIGRAM=0501h-024FFh \
  -ARAM=0560h-05FFh,0600h-06FFhx31 -ABANK5=0560h-05FFh -ABANK6=0600h-06FFh \
  -ABANK7=0700h-07FFh -ABANK8=0800h-08FFh -ABANK9=0900h-09FFh \
  -ABANK10=0A00h-0AFFh -ABANK11=0B00h-0BFFh -ABANK12=0C00h-0CFFh \
  -ABANK13=0D00h-0DFFh -ABANK14=0E00h-0EFFh -ABANK15=0F00h-0FFFh \
  -ABANK16=01000h-010FFh -ABANK17=01100h-011FFh -ABANK18=01200h-012FFh \
  -ABANK19=01300h-013FFh -ABANK20=01400h-014FFh -ABANK21=01500h-015FFh \
  -ABANK22=01600h-016FFh -ABANK23=01700h-017FFh -ABANK24=01800h-018FFh \
  -ABANK25=01900h-019FFh -ABANK26=01A00h-01AFFh -ABANK27=01B00h-01BFFh \
  -ABANK28=01C00h-01CFFh -ABANK29=01D00h-01DFFh -ABANK30=01E00h-01EFFh \
  -ABANK31=01F00h-01FFFh -ABANK32=02000h-020FFh -ABANK33=02100h-021FFh \
  -ABANK34=02200h-022FFh -ABANK35=02300h-023FFh -ABANK36=02400h-024FFh \
  -ASFR=00h-0FFhx4,0400h-045Fh,0460h-04FFh,02500h-025FFh \
  -ABIGSFR=00h-04FFh,02500h-025FFh -ACONFIG=0300000h-0300011h \
  -AIDLOC=0200000h-020003Fh -AEEDATA=0380000h-03803FFh -peeprom_data=EEDATA \
  -preset_vec=00h -ppowerup=CODE,init -pramtop=02500h \
  -psmallconst=SMALLCONST -pmediumconst=MEDIUMCONST -pconst=CONST \
  -AFARRAM=00h-00h \
  -prdata=COMRAM,nvrram=COMRAM,nvbit=COMRAM,rbss=COMRAM,rbit=COMRAM \
  -pfarbss=FARRAM,fardata=FARRAM,nvFARRAM=FARRAM \
  -pintsave_regs=BIGRAM,bigbss=BIGRAM,bigdata=BIGRAM -pbss=RAM \
  -pidata=CODE,irdata=CODE,ibigdata=CODE,ifardata=CODE -prparam=COMRAM \
  C:\Users\DELL\AppData\Local\Temp\xcAs1oo.\driver_tmp_14.o \
  dist/default/debug\Ejemplo6_i2c.X.debug.o 

Object code version is 3.11

Machine type is 18F57Q43



                Name                               Link     Load   Length Selector   Space Scale
C:\Users\DELL\AppData\Local\Temp\xcAs1oo.\driver_tmp_14.o
                config                           300000   300000        A        0       4
                init                              1FFFC    1FFFC        4     FFFE       0
                reset_vec                             0        0        4        0       0
dist/default/debug\Ejemplo6_i2c.X.debug.o
                config                           300000   300000        A        0       4
                smallconst                         2500     2500       7C     1280       0
                text59                             375C     375C        C     12BE       0
                text58                             3772     3772        A     12BE       0
                text57                             3768     3768        A     12BE       0
                text56                             379C     379C        8     12BE       0
                text55                             34AC     34AC       2E     12BE       0
                text54                             3530     3530       28     12BE       0
                text53                             37BC     37BC        6     12BE       0
                text52                             37C2     37C2        2     12BE       0
                text51                             371C     371C       16     12BE       0
                text50                             3706     3706       16     12BE       0
                text49                             36F0     36F0       16     12BE       0
                text48                             36DA     36DA       16     12BE       0
                text47                             36C4     36C4       16     12BE       0
                text46                             3794     3794        8     12BE       0
                text45                             378C     378C        8     12BE       0
                text44                             37B6     37B6        6     12BE       0
                text43                             35A4     35A4       26     12BE       0
                text42                             37B0     37B0        6     12BE       0
                text41                             3784     3784        8     12BE       0
                text40                             37AA     37AA        6     12BE       0
                text39                             357E     357E       26     12BE       0
                text38                             257C     257C      210     12BE       0
                text37                             34DA     34DA       2C     12BE       0
                text36                             37A4     37A4        6     12BE       0
                text35                             3472     3472       3A     12BE       0
                text34                             3270     3270       58     12BE       0
                text33                             292E     292E      10E     12BE       0
                text32                             3316     3316       4E     12BE       0
                text31                             3054     3054       8A     12BE       0
                text30                             3652     3652       22     12BE       0
                text29                             31B6     31B6       62     12BE       0
                text28                             2E6A     2E6A       C2     12BE       0
                text27                             3692     3692       1C     12BE       0
                text26                             3630     3630       22     12BE       0
                text25                             3218     3218       58     12BE       0
                text24                             374E     374E        E     12BE       0
                text23                             3740     3740        E     12BE       0
                text22                             3732     3732        E     12BE       0
                text21                             3432     3432       40     12BE       0
                text20                             2B2A     2B2A       E8     12BE       0
                text19                             360E     360E       22     12BE       0
                text18                             35EC     35EC       22     12BE       0
                text17                             35CA     35CA       22     12BE       0
                text16                             2FCA     2FCA       8A     12BE       0
                text15                             36AE     36AE       16     12BE       0
                text14                             3558     3558       26     12BE       0
                text13                             2DA4     2DA4       C6     12BE       0
                text12                             30DE     30DE       74     12BE       0
                text11                             3152     3152       64     12BE       0
                text10                             3506     3506       2A     12BE       0
                text9                              377C     377C        8     12BE       0
                text8                              3674     3674       1E     12BE       0
                text7                              2C12     2C12       CA     12BE       0
                text6                              33AC     33AC       44     12BE       0
                text5                              2F2C     2F2C       9E     12BE       0
                text4                              2A3C     2A3C       EE     12BE       0
                text3                              278C     278C      1A2     12BE       0
                text2                              32C8     32C8       4E     12BE       0
                text1                              3364     3364       48     12BE       0
                text0                              2CDC     2CDC       C8     12BE       0
                cstackCOMRAM                        501      501       4D      501       1
                dataBANK5                           5A1      5A1        1      560       1
                bssBANK5                            560      560       41      560       1
                dataCOMRAM                          55F      55F        1      501       1
                bssCOMRAM                           54E      54E       11      501       1
                cinit                              33F0     33F0       42     12BE       0
                idataBANK5                         37C5     37C5        1     12BE       0
                idataCOMRAM                        37C4     37C4        1     12BE       0

TOTAL           Name                               Link     Load   Length     Space
        CLASS   CODE           
                init                              1FFFC    1FFFC        4         0
                reset_vec                             0        0        4         0
                text59                             375C     375C        C         0
                text58                             3772     3772        A         0
                text57                             3768     3768        A         0
                text56                             379C     379C        8         0
                text55                             34AC     34AC       2E         0
                text54                             3530     3530       28         0
                text53                             37BC     37BC        6         0
                text52                             37C2     37C2        2         0
                text51                             371C     371C       16         0
                text50                             3706     3706       16         0
                text49                             36F0     36F0       16         0
                text48                             36DA     36DA       16         0
                text47                             36C4     36C4       16         0
                text46                             3794     3794        8         0
                text45                             378C     378C        8         0
                text44                             37B6     37B6        6         0
                text43                             35A4     35A4       26         0
                text42                             37B0     37B0        6         0
                text41                             3784     3784        8         0
                text40                             37AA     37AA        6         0
                text39                             357E     357E       26         0
                text38                             257C     257C      210         0
                text37                             34DA     34DA       2C         0
                text36                             37A4     37A4        6         0
                text35                             3472     3472       3A         0
                text34                             3270     3270       58         0
                text33                             292E     292E      10E         0
                text32                             3316     3316       4E         0
                text31                             3054     3054       8A         0
                text30                             3652     3652       22         0
                text29                             31B6     31B6       62         0
                text28                             2E6A     2E6A       C2         0
                text27                             3692     3692       1C         0
                text26                             3630     3630       22         0
                text25                             3218     3218       58         0
                text24                             374E     374E        E         0
                text23                             3740     3740        E         0
                text22                             3732     3732        E         0
                text21                             3432     3432       40         0
                text20                             2B2A     2B2A       E8         0
                text19                             360E     360E       22         0
                text18                             35EC     35EC       22         0
                text17                             35CA     35CA       22         0
                text16                             2FCA     2FCA       8A         0
                text15                             36AE     36AE       16         0
                text14                             3558     3558       26         0
                text13                             2DA4     2DA4       C6         0
                text12                             30DE     30DE       74         0
                text11                             3152     3152       64         0
                text10                             3506     3506       2A         0
                text9                              377C     377C        8         0
                text8                              3674     3674       1E         0
                text7                              2C12     2C12       CA         0
                text6                              33AC     33AC       44         0
                text5                              2F2C     2F2C       9E         0
                text4                              2A3C     2A3C       EE         0
                text3                              278C     278C      1A2         0
                text2                              32C8     32C8       4E         0
                text1                              3364     3364       48         0
                text0                              2CDC     2CDC       C8         0
                cinit                              33F0     33F0       42         0
                idataBANK5                         37C5     37C5        1         0
                idataCOMRAM                        37C4     37C4        1         0

        CLASS   CONST          

        CLASS   SMALLCONST     
                smallconst                         2500     2500       7C         0

        CLASS   MEDIUMCONST    

        CLASS   COMRAM         
                cstackCOMRAM                        501      501       4D         1
                dataCOMRAM                          55F      55F        1         1
                bssCOMRAM                           54E      54E       11         1

        CLASS   ABS1           

        CLASS   BIGRAM         

        CLASS   RAM            

        CLASS   BANK5          
                dataBANK5                           5A1      5A1        1         1
                bssBANK5                            560      560       41         1

        CLASS   BANK6          

        CLASS   BANK7          

        CLASS   BANK8          

        CLASS   BANK9          

        CLASS   BANK10         

        CLASS   BANK11         

        CLASS   BANK12         

        CLASS   BANK13         

        CLASS   BANK14         

        CLASS   BANK15         

        CLASS   BANK16         

        CLASS   BANK17         

        CLASS   BANK18         

        CLASS   BANK19         

        CLASS   BANK20         

        CLASS   BANK21         

        CLASS   BANK22         

        CLASS   BANK23         

        CLASS   BANK24         

        CLASS   BANK25         

        CLASS   BANK26         

        CLASS   BANK27         

        CLASS   BANK28         

        CLASS   BANK29         

        CLASS   BANK30         

        CLASS   BANK31         

        CLASS   BANK32         

        CLASS   BANK33         

        CLASS   BANK34         

        CLASS   BANK35         

        CLASS   BANK36         

        CLASS   SFR            

        CLASS   BIGSFR         

        CLASS   CONFIG         
                config                           300000   300000        A         4

        CLASS   IDLOC          

        CLASS   EEDATA         

        CLASS   FARRAM         

        CLASS   HEAP           

        CLASS   STACK          



SEGMENTS        Name                           Load    Length   Top    Selector   Space  Class

                reset_vec                      000000  000004  000004         0       0  CODE    
                cstackCOMRAM                   000501  00005F  000560       501       1  COMRAM  
                bssBANK5                       000560  000042  0005A2       560       1  BANK5   
                smallconst                     002500  00007C  00257C      1280       0  SMALLCON
                text38                         00257C  00124A  0037C6      12BE       0  CODE    
                init                           01FFFC  000004  020000      FFFE       0  CODE    


UNUSED ADDRESS RANGES

        Name                Unused          Largest block    Delta
        BANK10           000A00-000AFF              100
        BANK11           000B00-000BFF              100
        BANK12           000C00-000CFF              100
        BANK13           000D00-000DFF              100
        BANK14           000E00-000EFF              100
        BANK15           000F00-000FFF              100
        BANK16           001000-0010FF              100
        BANK17           001100-0011FF              100
        BANK18           001200-0012FF              100
        BANK19           001300-0013FF              100
        BANK20           001400-0014FF              100
        BANK21           001500-0015FF              100
        BANK22           001600-0016FF              100
        BANK23           001700-0017FF              100
        BANK24           001800-0018FF              100
        BANK25           001900-0019FF              100
        BANK26           001A00-001AFF              100
        BANK27           001B00-001BFF              100
        BANK28           001C00-001CFF              100
        BANK29           001D00-001DFF              100
        BANK30           001E00-001EFF              100
        BANK31           001F00-001FFF              100
        BANK32           002000-0020FF              100
        BANK33           002100-0021FF              100
        BANK34           002200-0022FF              100
        BANK35           002300-0023FF              100
        BANK36           002400-0024FF              100
        BANK5            0005A2-0005FF               5E
        BANK6            000600-0006FF              100
        BANK7            000700-0007FF              100
        BANK8            000800-0008FF              100
        BANK9            000900-0009FF              100
        BIGRAM           0005A2-0024FF             1F5E
        BIGSFR           000000-0004FF              500
                         002500-0025FF              100
        CODE             000004-0024FF             24FC
                         0037C6-01FFFB            1C836
        CONFIG           30000A-300011                8
        CONST            000004-0024FF             24FC
                         0037C6-01FFFB            1C836
        EEDATA           380000-3803FF              400
        IDLOC            200000-20003F               40
        MEDIUMCONST      0037C6-00FFFF             C83A
                         012500-01FFFB             DAFC
        RAM              0005A2-0024FF              100
        SFR              000000-0004FF              100
                         002500-0025FF              100
        SMALLCONST       0037C6-01FFFB              100

                                  Symbol Table

?___lwdiv                                          cstackCOMRAM 000501
?___lwmod                                          cstackCOMRAM 000501
?___wmul                                           cstackCOMRAM 000501
?_read_prec_or_width                               cstackCOMRAM 000507
?_sprintf                                          cstackCOMRAM 000539
?_vfprintf                                         cstackCOMRAM 000533
I2C1_AddrTransmit@addr                             cstackCOMRAM 000501
I2C1_CallbackRegister@callbackHandler              cstackCOMRAM 000501
I2C1_CounterSet@counter                            cstackCOMRAM 000501
I2C1_DataTransmit@data                             cstackCOMRAM 000501
I2C1_ErrorGet@retErrorState                        cstackCOMRAM 000501
I2C1_Write@address                                 cstackCOMRAM 000502
I2C1_Write@data                                    cstackCOMRAM 000504
I2C1_Write@dataLength                              cstackCOMRAM 000506
I2C1_Write@retStatus                               cstackCOMRAM 000508
I2C_Write@data                                     cstackCOMRAM 000509
I2C_Write@deviceAddress                            cstackCOMRAM 00050D
I2C_Write@writeLength                              cstackCOMRAM 00050B
INT0_SetInterruptHandler@InterruptHandler          cstackCOMRAM 000501
INT1_SetInterruptHandler@InterruptHandler          cstackCOMRAM 000501
INT2_SetInterruptHandler@InterruptHandler          cstackCOMRAM 000501
LCD_PIC_CMD@a                                      cstackCOMRAM 000510
LCD_PIC_CMD@dato                                   cstackCOMRAM 000511
LCD_PIC_CMD@rs                                     cstackCOMRAM 00050E
LCD_PIC_PRINT_CHAR@a                               cstackCOMRAM 000514
LCD_PIC_PRINT_CHAR@m                               cstackCOMRAM 000512
LCD_PIC_PRINT_CHAR@n                               cstackCOMRAM 000513
LCD_PIC_PRINT_STRING@a                             cstackCOMRAM 000515
LCD_PIC_SET_CURSOR@m                               cstackCOMRAM 000516
LCD_PIC_SET_CURSOR@n                               cstackCOMRAM 000517
LCD_PIC_SET_CURSOR@x                               cstackCOMRAM 000518
LCD_PIC_SET_CURSOR@y                               cstackCOMRAM 000512
UART1_FramingErrorCallbackRegister@callbackHandler cstackCOMRAM 000501
UART1_OverrunErrorCallbackRegister@callbackHandler cstackCOMRAM 000501
UART1_ParityErrorCallbackRegister@callbackHandler  cstackCOMRAM 000501
UART1_Write@txData                                 cstackCOMRAM 000501
_ACTCON                                            (abs)        0000AC
_ANSELA                                            (abs)        000400
_ANSELB                                            (abs)        000408
_ANSELC                                            (abs)        000410
_ANSELD                                            (abs)        000418
_ANSELE                                            (abs)        000420
_ANSELF                                            (abs)        000428
_CLOCK_Initialize                                  text27       003692
_I2C1ADB1                                          (abs)        00028F
_I2C1CLK                                           (abs)        00029C
_I2C1CNT                                           (abs)        00028D
_I2C1CON0                                          (abs)        000294
_I2C1CON0bits                                      (abs)        000294
_I2C1CON1                                          (abs)        000295
_I2C1CON1bits                                      (abs)        000295
_I2C1CON2                                          (abs)        000296
_I2C1ERR                                           (abs)        000297
_I2C1ERRbits                                       (abs)        000297
_I2C1PIE                                           (abs)        00029B
_I2C1PIR                                           (abs)        00029A
_I2C1PIRbits                                       (abs)        00029A
_I2C1RXB                                           (abs)        00028B
_I2C1SCLPPS                                        (abs)        000271
_I2C1SDAPPS                                        (abs)        000270
_I2C1STAT0bits                                     (abs)        000298
_I2C1STAT1                                         (abs)        000299
_I2C1STAT1bits                                     (abs)        000299
_I2C1TXB                                           (abs)        00028C
_I2C1_AddrTransmit                                 text46       003794
_I2C1_BufferClear                                  text58       003772
_I2C1_BusReset                                     text55       0034AC
_I2C1_Callback                                     bssBANK5     000560
_I2C1_CallbackRegister                             text26       003630
_I2C1_Close                                        text54       003530
_I2C1_CounterGet                                   text42       0037B0
_I2C1_CounterSet                                   text45       00378C
_I2C1_DataReceive                                  text53       0037BC
_I2C1_DataTransmit                                 text41       003784
_I2C1_DefaultCallback                              text52       0037C2
_I2C1_Deinitialize                                 (abs)        000000
_I2C1_ErrorFlagsClear                              text57       003768
_I2C1_ErrorGet                                     text59       00375C
_I2C1_Host                                         smallconst   002549
_I2C1_Initialize                                   text25       003218
_I2C1_InterruptsClear                              text56       00379C
_I2C1_IsAddr                                       text51       00371C
_I2C1_IsBusCol                                     text50       003706
_I2C1_IsBusTimeOut                                 text49       0036F0
_I2C1_IsBusy                                       text37       0034DA
_I2C1_IsBusy$1455                                  cstackCOMRAM 000501
_I2C1_IsData                                       text48       0036DA
_I2C1_IsNack                                       text47       0036C4
_I2C1_Read                                         (abs)        000000
_I2C1_ReadStart                                    text43       0035A4
_I2C1_RestartDisable                               text40       0037AA
_I2C1_RestartEnable                                text36       0037A4
_I2C1_StartSend                                    text44       0037B6
_I2C1_StopSend                                     text39       00357E
_I2C1_Tasks                                        text38       00257C
_I2C1_Write                                        text34       003270
_I2C1_WriteRead                                    (abs)        000000
_I2C1_WriteStart                                   text35       003472
_I2C_Write                                         text33       00292E
_I2C_get_error                                     bssCOMRAM    00055E
_I2C_status                                        dataBANK5    0005A1
_INLVLA                                            (abs)        000404
_INLVLB                                            (abs)        00040C
_INLVLC                                            (abs)        000414
_INLVLD                                            (abs)        00041C
_INLVLE                                            (abs)        000424
_INLVLF                                            (abs)        00042C
_INT0_DefaultInterruptHandler                      (abs)        000000
_INT0_InterruptHandler                             bssBANK5     000569
_INT0_SetInterruptHandler                          text24       00374E
_INT1_DefaultInterruptHandler                      (abs)        000000
_INT1_InterruptHandler                             bssBANK5     000566
_INT1_SetInterruptHandler                          text23       003740
_INT2_DefaultInterruptHandler                      (abs)        000000
_INT2_InterruptHandler                             bssBANK5     000563
_INT2_SetInterruptHandler                          text22       003732
_INTCON0bits                                       (abs)        0004D6
_INTERRUPT_Initialize                              text21       003432
_IOCAF                                             (abs)        000407
_IOCAN                                             (abs)        000406
_IOCAP                                             (abs)        000405
_IOCBF                                             (abs)        00040F
_IOCBN                                             (abs)        00040E
_IOCBP                                             (abs)        00040D
_IOCCF                                             (abs)        000417
_IOCCN                                             (abs)        000416
_IOCCP                                             (abs)        000415
_IOCEF                                             (abs)        000427
_IOCEN                                             (abs)        000426
_IOCEP                                             (abs)        000425
_LATA                                              (abs)        0004BE
_LATB                                              (abs)        0004BF
_LATC                                              (abs)        0004C0
_LATD                                              (abs)        0004C1
_LATE                                              (abs)        0004C2
_LATF                                              (abs)        0004C3
_LATFbits                                          (abs)        0004C3
_LCD_PIC_CMD                                       text32       003316
_LCD_PIC_INIT                                      text31       003054
_LCD_PIC_PRINT_CHAR                                text30       003652
_LCD_PIC_PRINT_STRING                              text29       0031B6
_LCD_PIC_SET_CURSOR                                text28       002E6A
_ODCONA                                            (abs)        000402
_ODCONB                                            (abs)        00040A
_ODCONC                                            (abs)        000412
_ODCOND                                            (abs)        00041A
_ODCONE                                            (abs)        000422
_ODCONF                                            (abs)        00042A
_OSCCON1                                           (abs)        0000AD
_OSCCON3                                           (abs)        0000AF
_OSCEN                                             (abs)        0000B3
_OSCFRQ                                            (abs)        0000B1
_OSCTUNE                                           (abs)        0000B0
_PIN_MANAGER_Initialize                            text20       002B2A
_PIR10bits                                         (abs)        0004B8
_PIR1bits                                          (abs)        0004AF
_PIR6bits                                          (abs)        0004B4
_PIR7bits                                          (abs)        0004B5
_RB1I2C                                            (abs)        000289
_RB2I2C                                            (abs)        000288
_RC3I2C                                            (abs)        000287
_RC3PPS                                            (abs)        000214
_RC4I2C                                            (abs)        000286
_RC4PPS                                            (abs)        000215
_RF0PPS                                            (abs)        000229
_SLRCONA                                           (abs)        000403
_SLRCONB                                           (abs)        00040B
_SLRCONC                                           (abs)        000413
_SLRCOND                                           (abs)        00041B
_SLRCONE                                           (abs)        000423
_SLRCONF                                           (abs)        00042B
_SYSTEM_Initialize                                 text15       0036AE
_TRISA                                             (abs)        0004C6
_TRISB                                             (abs)        0004C7
_TRISC                                             (abs)        0004C8
_TRISD                                             (abs)        0004C9
_TRISE                                             (abs)        0004CA
_TRISF                                             (abs)        0004CB
_U1BRGH                                            (abs)        0002AF
_U1BRGL                                            (abs)        0002AE
_U1CON0                                            (abs)        0002AB
_U1CON0bits                                        (abs)        0002AB
_U1CON1                                            (abs)        0002AC
_U1CON1bits                                        (abs)        0002AC
_U1CON2                                            (abs)        0002AD
_U1ERRIE                                           (abs)        0002B3
_U1ERRIR                                           (abs)        0002B2
_U1ERRIRbits                                       (abs)        0002B2
_U1FIFO                                            (abs)        0002B0
_U1FIFObits                                        (abs)        0002B0
_U1P1H                                             (abs)        0002A6
_U1P1L                                             (abs)        0002A5
_U1P2H                                             (abs)        0002A8
_U1P2L                                             (abs)        0002A7
_U1P3H                                             (abs)        0002AA
_U1P3L                                             (abs)        0002A9
_U1RXB                                             (abs)        0002A1
_U1RXCHK                                           (abs)        0002A2
_U1RXPPS                                           (abs)        000272
_U1TXB                                             (abs)        0002A3
_U1TXCHK                                           (abs)        0002A4
_U1UIR                                             (abs)        0002B1
_U1UIRbits                                         (abs)        0002B1
_UART1                                             smallconst   002501
_UART1_AutoBaudQuery                               (abs)        000000
_UART1_AutoBaudSet                                 (abs)        000000
_UART1_DefaultFramingErrorCallback                 (abs)        000000
_UART1_DefaultOverrunErrorCallback                 (abs)        000000
_UART1_DefaultParityErrorCallback                  (abs)        000000
_UART1_Deinitialize                                (abs)        000000
_UART1_ErrorGet                                    (abs)        000000
_UART1_FramingErrorCallbackRegister                text19       00360E
_UART1_FramingErrorHandler                         bssBANK5     000572
_UART1_Initialize                                  text16       002FCA
_UART1_IsRxReady                                   (abs)        000000
_UART1_IsTxDone                                    (abs)        000000
_UART1_IsTxReady                                   text10       003506
_UART1_IsTxReady$715                               cstackCOMRAM 000501
_UART1_OverrunErrorCallbackRegister                text18       0035EC
_UART1_OverrunErrorHandler                         bssBANK5     00056F
_UART1_ParityErrorCallbackRegister                 text17       0035CA
_UART1_ParityErrorHandler                          bssBANK5     00056C
_UART1_Read                                        (abs)        000000
_UART1_TransmitDisable                             (abs)        000000
_UART1_TransmitEnable                              (abs)        000000
_UART1_Write                                       text9        00377C
_WPUA                                              (abs)        000401
_WPUB                                              (abs)        000409
_WPUC                                              (abs)        000411
_WPUD                                              (abs)        000419
_WPUE                                              (abs)        000421
_WPUF                                              (abs)        000429
__HRAM                                             (abs)        000000
__H__absolute__                                    __absolute__ 000000
__Habs1                                            abs1         000000
__Hbank10                                          bank10       000000
__Hbank11                                          bank11       000000
__Hbank12                                          bank12       000000
__Hbank13                                          bank13       000000
__Hbank14                                          bank14       000000
__Hbank15                                          bank15       000000
__Hbank16                                          bank16       000000
__Hbank17                                          bank17       000000
__Hbank18                                          bank18       000000
__Hbank19                                          bank19       000000
__Hbank20                                          bank20       000000
__Hbank21                                          bank21       000000
__Hbank22                                          bank22       000000
__Hbank23                                          bank23       000000
__Hbank24                                          bank24       000000
__Hbank25                                          bank25       000000
__Hbank26                                          bank26       000000
__Hbank27                                          bank27       000000
__Hbank28                                          bank28       000000
__Hbank29                                          bank29       000000
__Hbank30                                          bank30       000000
__Hbank31                                          bank31       000000
__Hbank32                                          bank32       000000
__Hbank33                                          bank33       000000
__Hbank34                                          bank34       000000
__Hbank35                                          bank35       000000
__Hbank36                                          bank36       000000
__Hbank5                                           bank5        000000
__Hbank6                                           bank6        000000
__Hbank7                                           bank7        000000
__Hbank8                                           bank8        000000
__Hbank9                                           bank9        000000
__Hbigbss                                          bigbss       000000
__Hbigdata                                         bigdata      000000
__Hbigram                                          bigram       000000
__Hbigsfr                                          bigsfr       000000
__Hbss                                             bss          000000
__HbssBANK5                                        bssBANK5     000000
__HbssCOMRAM                                       bssCOMRAM    000000
__Hcinit                                           cinit        000000
__Hclrtext                                         clrtext      000000
__Hcomram                                          comram       000000
__Hconfig                                          config       30000A
__Hconst                                           const        000000
__HcstackCOMRAM                                    cstackCOMRAM 000000
__Hdata                                            data         000000
__HdataBANK5                                       dataBANK5    000000
__HdataCOMRAM                                      dataCOMRAM   000000
__Heeprom_data                                     eeprom_data  000000
__Hfarbss                                          farbss       000000
__Hfardata                                         fardata      000000
__Hheap                                            heap         000000
__Hibigdata                                        ibigdata     000000
__Hidata                                           idata        000000
__HidataBANK5                                      idataBANK5   000000
__HidataCOMRAM                                     idataCOMRAM  000000
__Hidloc                                           idloc        000000
__Hifardata                                        ifardata     000000
__Hinit                                            init         020000
__Hintsave_regs                                    intsave_regs 000000
__Hirdata                                          irdata       000000
__Hmediumconst                                     mediumconst  000000
__HnvFARRAM                                        nvFARRAM     000000
__Hnvbit                                           nvbit        000000
__Hnvrram                                          nvrram       000000
__Hparam                                           rparam       000000
__Hpowerup                                         powerup      000000
__Hram                                             ram          000000
__Hramtop                                          ramtop       002500
__Hrbit                                            rbit         000000
__Hrbss                                            rbss         000000
__Hrdata                                           rdata        000000
__Hreset_vec                                       reset_vec    000004
__Hrparam                                          rparam       000000
__Hsfr                                             sfr          000000
__Hsmallconst                                      smallconst   00257C
__Hspace_0                                         (abs)        020000
__Hspace_1                                         (abs)        0005A2
__Hspace_2                                         (abs)        000000
__Hspace_4                                         (abs)        60000A
__Hstack                                           stack        000000
__Hstruct                                          struct       000000
__Htemp                                            temp         000000
__Htext                                            text         000000
__Htext0                                           text0        000000
__Htext1                                           text1        000000
__Htext10                                          text10       000000
__Htext11                                          text11       000000
__Htext12                                          text12       000000
__Htext13                                          text13       000000
__Htext14                                          text14       000000
__Htext15                                          text15       000000
__Htext16                                          text16       000000
__Htext17                                          text17       000000
__Htext18                                          text18       000000
__Htext19                                          text19       000000
__Htext2                                           text2        000000
__Htext20                                          text20       000000
__Htext21                                          text21       000000
__Htext22                                          text22       000000
__Htext23                                          text23       000000
__Htext24                                          text24       000000
__Htext25                                          text25       000000
__Htext26                                          text26       000000
__Htext27                                          text27       000000
__Htext28                                          text28       000000
__Htext29                                          text29       000000
__Htext3                                           text3        000000
__Htext30                                          text30       000000
__Htext31                                          text31       000000
__Htext32                                          text32       000000
__Htext33                                          text33       000000
__Htext34                                          text34       000000
__Htext35                                          text35       000000
__Htext36                                          text36       000000
__Htext37                                          text37       000000
__Htext38                                          text38       000000
__Htext39                                          text39       000000
__Htext4                                           text4        000000
__Htext40                                          text40       000000
__Htext41                                          text41       000000
__Htext42                                          text42       000000
__Htext43                                          text43       000000
__Htext44                                          text44       000000
__Htext45                                          text45       000000
__Htext46                                          text46       000000
__Htext47                                          text47       000000
__Htext48                                          text48       000000
__Htext49                                          text49       000000
__Htext5                                           text5        000000
__Htext50                                          text50       000000
__Htext51                                          text51       000000
__Htext52                                          text52       000000
__Htext53                                          text53       000000
__Htext54                                          text54       000000
__Htext55                                          text55       000000
__Htext56                                          text56       000000
__Htext57                                          text57       000000
__Htext58                                          text58       000000
__Htext59                                          text59       000000
__Htext6                                           text6        000000
__Htext7                                           text7        000000
__Htext8                                           text8        000000
__Htext9                                           text9        000000
__LRAM                                             (abs)        000001
__L__absolute__                                    __absolute__ 000000
__Labs1                                            abs1         000000
__Lbank10                                          bank10       000000
__Lbank11                                          bank11       000000
__Lbank12                                          bank12       000000
__Lbank13                                          bank13       000000
__Lbank14                                          bank14       000000
__Lbank15                                          bank15       000000
__Lbank16                                          bank16       000000
__Lbank17                                          bank17       000000
__Lbank18                                          bank18       000000
__Lbank19                                          bank19       000000
__Lbank20                                          bank20       000000
__Lbank21                                          bank21       000000
__Lbank22                                          bank22       000000
__Lbank23                                          bank23       000000
__Lbank24                                          bank24       000000
__Lbank25                                          bank25       000000
__Lbank26                                          bank26       000000
__Lbank27                                          bank27       000000
__Lbank28                                          bank28       000000
__Lbank29                                          bank29       000000
__Lbank30                                          bank30       000000
__Lbank31                                          bank31       000000
__Lbank32                                          bank32       000000
__Lbank33                                          bank33       000000
__Lbank34                                          bank34       000000
__Lbank35                                          bank35       000000
__Lbank36                                          bank36       000000
__Lbank5                                           bank5        000000
__Lbank6                                           bank6        000000
__Lbank7                                           bank7        000000
__Lbank8                                           bank8        000000
__Lbank9                                           bank9        000000
__Lbigbss                                          bigbss       000000
__Lbigdata                                         bigdata      000000
__Lbigram                                          bigram       000000
__Lbigsfr                                          bigsfr       000000
__Lbss                                             bss          000000
__LbssBANK5                                        bssBANK5     000000
__LbssCOMRAM                                       bssCOMRAM    000000
__Lcinit                                           cinit        000000
__Lclrtext                                         clrtext      000000
__Lcomram                                          comram       000000
__Lconfig                                          config       000000
__Lconst                                           const        000000
__LcstackCOMRAM                                    cstackCOMRAM 000000
__Ldata                                            data         000000
__LdataBANK5                                       dataBANK5    000000
__LdataCOMRAM                                      dataCOMRAM   000000
__Leeprom_data                                     eeprom_data  000000
__Lfarbss                                          farbss       000000
__Lfardata                                         fardata      000000
__Lheap                                            heap         000000
__Libigdata                                        ibigdata     000000
__Lidata                                           idata        000000
__LidataBANK5                                      idataBANK5   000000
__LidataCOMRAM                                     idataCOMRAM  000000
__Lidloc                                           idloc        000000
__Lifardata                                        ifardata     000000
__Linit                                            init         01FFFC
__Lintsave_regs                                    intsave_regs 000000
__Lirdata                                          irdata       000000
__Lmediumconst                                     mediumconst  000000
__LnvFARRAM                                        nvFARRAM     000000
__Lnvbit                                           nvbit        000000
__Lnvrram                                          nvrram       000000
__Lparam                                           rparam       000000
__Lpowerup                                         powerup      000000
__Lram                                             ram          000000
__Lramtop                                          ramtop       002500
__Lrbit                                            rbit         000000
__Lrbss                                            rbss         000000
__Lrdata                                           rdata        000000
__Lreset_vec                                       reset_vec    000000
__Lrparam                                          rparam       000000
__Lsfr                                             sfr          000000
__Lsmallconst                                      smallconst   002500
__Lspace_0                                         (abs)        000000
__Lspace_1                                         (abs)        000000
__Lspace_2                                         (abs)        000000
__Lspace_4                                         (abs)        000000
__Lstack                                           stack        000000
__Lstruct                                          struct       000000
__Ltemp                                            temp         000000
__Ltext                                            text         000000
__Ltext0                                           text0        000000
__Ltext1                                           text1        000000
__Ltext10                                          text10       000000
__Ltext11                                          text11       000000
__Ltext12                                          text12       000000
__Ltext13                                          text13       000000
__Ltext14                                          text14       000000
__Ltext15                                          text15       000000
__Ltext16                                          text16       000000
__Ltext17                                          text17       000000
__Ltext18                                          text18       000000
__Ltext19                                          text19       000000
__Ltext2                                           text2        000000
__Ltext20                                          text20       000000
__Ltext21                                          text21       000000
__Ltext22                                          text22       000000
__Ltext23                                          text23       000000
__Ltext24                                          text24       000000
__Ltext25                                          text25       000000
__Ltext26                                          text26       000000
__Ltext27                                          text27       000000
__Ltext28                                          text28       000000
__Ltext29                                          text29       000000
__Ltext3                                           text3        000000
__Ltext30                                          text30       000000
__Ltext31                                          text31       000000
__Ltext32                                          text32       000000
__Ltext33                                          text33       000000
__Ltext34                                          text34       000000
__Ltext35                                          text35       000000
__Ltext36                                          text36       000000
__Ltext37                                          text37       000000
__Ltext38                                          text38       000000
__Ltext39                                          text39       000000
__Ltext4                                           text4        000000
__Ltext40                                          text40       000000
__Ltext41                                          text41       000000
__Ltext42                                          text42       000000
__Ltext43                                          text43       000000
__Ltext44                                          text44       000000
__Ltext45                                          text45       000000
__Ltext46                                          text46       000000
__Ltext47                                          text47       000000
__Ltext48                                          text48       000000
__Ltext49                                          text49       000000
__Ltext5                                           text5        000000
__Ltext50                                          text50       000000
__Ltext51                                          text51       000000
__Ltext52                                          text52       000000
__Ltext53                                          text53       000000
__Ltext54                                          text54       000000
__Ltext55                                          text55       000000
__Ltext56                                          text56       000000
__Ltext57                                          text57       000000
__Ltext58                                          text58       000000
__Ltext59                                          text59       000000
__Ltext6                                           text6        000000
__Ltext7                                           text7        000000
__Ltext8                                           text8        000000
__Ltext9                                           text9        000000
__S0                                               (abs)        020000
__S1                                               (abs)        0005A2
__S4                                               (abs)        000000
__S5                                               (abs)        000000
___heap_hi                                         (abs)        000000
___heap_lo                                         (abs)        000000
___inthi_sp                                        stack        000000
___inthi_stack_hi                                  stack        000000
___inthi_stack_lo                                  stack        000000
___intlo_sp                                        stack        000000
___intlo_stack_hi                                  stack        000000
___intlo_stack_lo                                  stack        000000
___lwdiv                                           text12       0030DE
___lwdiv@counter                                   cstackCOMRAM 000507
___lwdiv@dividend                                  cstackCOMRAM 000501
___lwdiv@divisor                                   cstackCOMRAM 000503
___lwdiv@quotient                                  cstackCOMRAM 000505
___lwmod                                           text11       003152
___lwmod@counter                                   cstackCOMRAM 000505
___lwmod@dividend                                  cstackCOMRAM 000501
___lwmod@divisor                                   cstackCOMRAM 000503
___param_bank                                      (abs)        000000
___rparam_used                                     (abs)        000001
___sp                                              stack        000000
___stack_hi                                        stack        000000
___stack_lo                                        stack        000000
___wmul                                            text14       003558
___wmul@multiplicand                               cstackCOMRAM 000503
___wmul@multiplier                                 cstackCOMRAM 000501
___wmul@product                                    cstackCOMRAM 000505
__accesstop                                        (abs)        000560
__activetblptr                                     (abs)        000003
__end_of_CLOCK_Initialize                          text27       0036AE
__end_of_I2C1_AddrTransmit                         text46       00379C
__end_of_I2C1_BufferClear                          text58       00377C
__end_of_I2C1_BusReset                             text55       0034DA
__end_of_I2C1_CallbackRegister                     text26       003652
__end_of_I2C1_Close                                text54       003558
__end_of_I2C1_CounterGet                           text42       0037B6
__end_of_I2C1_CounterSet                           text45       003794
__end_of_I2C1_DataReceive                          text53       0037C2
__end_of_I2C1_DataTransmit                         text41       00378C
__end_of_I2C1_DefaultCallback                      text52       0037C4
__end_of_I2C1_ErrorFlagsClear                      text57       003772
__end_of_I2C1_ErrorGet                             text59       003768
__end_of_I2C1_Host                                 smallconst   002567
__end_of_I2C1_Initialize                           text25       003270
__end_of_I2C1_InterruptsClear                      text56       0037A4
__end_of_I2C1_IsAddr                               text51       003732
__end_of_I2C1_IsBusCol                             text50       00371C
__end_of_I2C1_IsBusTimeOut                         text49       003706
__end_of_I2C1_IsBusy                               text37       003506
__end_of_I2C1_IsData                               text48       0036F0
__end_of_I2C1_IsNack                               text47       0036DA
__end_of_I2C1_ReadStart                            text43       0035CA
__end_of_I2C1_RestartDisable                       text40       0037B0
__end_of_I2C1_RestartEnable                        text36       0037AA
__end_of_I2C1_StartSend                            text44       0037BC
__end_of_I2C1_StopSend                             text39       0035A4
__end_of_I2C1_Tasks                                text38       00278C
__end_of_I2C1_Write                                text34       0032C8
__end_of_I2C1_WriteStart                           text35       0034AC
__end_of_I2C_Write                                 text33       002A3C
__end_of_INT0_SetInterruptHandler                  text24       00375C
__end_of_INT1_SetInterruptHandler                  text23       00374E
__end_of_INT2_SetInterruptHandler                  text22       003740
__end_of_INTERRUPT_Initialize                      text21       003472
__end_of_LCD_PIC_CMD                               text32       003364
__end_of_LCD_PIC_INIT                              text31       0030DE
__end_of_LCD_PIC_PRINT_CHAR                        text30       003674
__end_of_LCD_PIC_PRINT_STRING                      text29       003218
__end_of_LCD_PIC_SET_CURSOR                        text28       002F2C
__end_of_PIN_MANAGER_Initialize                    text20       002C12
__end_of_SYSTEM_Initialize                         text15       0036C4
__end_of_UART1                                     smallconst   002549
__end_of_UART1_FramingErrorCallbackRegister        text19       003630
__end_of_UART1_Initialize                          text16       003054
__end_of_UART1_IsTxReady                           text10       003530
__end_of_UART1_OverrunErrorCallbackRegister        text18       00360E
__end_of_UART1_ParityErrorCallbackRegister         text17       0035EC
__end_of_UART1_Write                               text9        003784
__end_of___lwdiv                                   text12       003152
__end_of___lwmod                                   text11       0031B6
__end_of___wmul                                    text14       00357E
__end_of__initialization                           cinit        00342C
__end_of_fputc                                     text7        002CDC
__end_of_fputs                                     text6        0033F0
__end_of_main                                      text0        002DA4
__end_of_pad                                       text5        002FCA
__end_of_putch                                     text8        003692
__end_of_read_prec_or_width                        text13       002E6A
__end_of_sprintf                                   text1        0033AC
__end_of_utoa                                      text4        002B2A
__end_of_vfpfcnvrt                                 text3        00292E
__end_of_vfprintf                                  text2        003316
__initialization                                   cinit        0033F0
__mediumconst                                      mediumconst  000000
__pbssBANK5                                        bssBANK5     000560
__pbssCOMRAM                                       bssCOMRAM    00054E
__pcinit                                           cinit        0033F0
__pcstackCOMRAM                                    cstackCOMRAM 000501
__pdataBANK5                                       dataBANK5    0005A1
__pdataCOMRAM                                      dataCOMRAM   00055F
__pidataBANK5                                      idataBANK5   0037C5
__pidataCOMRAM                                     idataCOMRAM  0037C4
__psmallconst                                      smallconst   002500
__ptext0                                           text0        002CDC
__ptext1                                           text1        003364
__ptext10                                          text10       003506
__ptext11                                          text11       003152
__ptext12                                          text12       0030DE
__ptext13                                          text13       002DA4
__ptext14                                          text14       003558
__ptext15                                          text15       0036AE
__ptext16                                          text16       002FCA
__ptext17                                          text17       0035CA
__ptext18                                          text18       0035EC
__ptext19                                          text19       00360E
__ptext2                                           text2        0032C8
__ptext20                                          text20       002B2A
__ptext21                                          text21       003432
__ptext22                                          text22       003732
__ptext23                                          text23       003740
__ptext24                                          text24       00374E
__ptext25                                          text25       003218
__ptext26                                          text26       003630
__ptext27                                          text27       003692
__ptext28                                          text28       002E6A
__ptext29                                          text29       0031B6
__ptext3                                           text3        00278C
__ptext30                                          text30       003652
__ptext31                                          text31       003054
__ptext32                                          text32       003316
__ptext33                                          text33       00292E
__ptext34                                          text34       003270
__ptext35                                          text35       003472
__ptext36                                          text36       0037A4
__ptext37                                          text37       0034DA
__ptext38                                          text38       00257C
__ptext39                                          text39       00357E
__ptext4                                           text4        002A3C
__ptext40                                          text40       0037AA
__ptext41                                          text41       003784
__ptext42                                          text42       0037B0
__ptext43                                          text43       0035A4
__ptext44                                          text44       0037B6
__ptext45                                          text45       00378C
__ptext46                                          text46       003794
__ptext47                                          text47       0036C4
__ptext48                                          text48       0036DA
__ptext49                                          text49       0036F0
__ptext5                                           text5        002F2C
__ptext50                                          text50       003706
__ptext51                                          text51       00371C
__ptext52                                          text52       0037C2
__ptext53                                          text53       0037BC
__ptext54                                          text54       003530
__ptext55                                          text55       0034AC
__ptext56                                          text56       00379C
__ptext57                                          text57       003768
__ptext58                                          text58       003772
__ptext59                                          text59       00375C
__ptext6                                           text6        0033AC
__ptext7                                           text7        002C12
__ptext8                                           text8        003674
__ptext9                                           text9        00377C
__ramtop                                           ramtop       002500
__smallconst                                       smallconst   002500
_dbuf                                              bssBANK5     00057B
_flags                                             bssCOMRAM    00055D
_fputc                                             text7        002C12
_fputs                                             text6        0033AC
_i                                                 bssCOMRAM    00055B
_i2c1Status                                        bssCOMRAM    00054E
_main                                              text0        002CDC
_pad                                               text5        002F2C
_prec                                              bssBANK5     000577
_putch                                             text8        003674
_read_prec_or_width                                text13       002DA4
_sprintf                                           text1        003364
_str_i                                             bssBANK5     00059B
_uart1RxLastError                                  bssBANK5     000579
_utoa                                              text4        002A3C
_vfpfcnvrt                                         text3        00278C
_vfprintf                                          text2        0032C8
_width                                             bssBANK5     000575
end_of_initialization                              cinit        00342C
fputc@c                                            cstackCOMRAM 000503
fputc@fp                                           cstackCOMRAM 000505
fputs@c                                            cstackCOMRAM 000510
fputs@fp                                           cstackCOMRAM 00050E
fputs@i                                            cstackCOMRAM 000511
fputs@s                                            cstackCOMRAM 00050C
intlevel0                                          text         000000
intlevel1                                          text         000000
intlevel2                                          text         000000
intlevel3                                          text         000000
isa$std                                            (abs)        000001
isa$xinst                                          (abs)        000000
pad@buf                                            cstackCOMRAM 000515
pad@fp                                             cstackCOMRAM 000513
pad@i                                              cstackCOMRAM 00051A
pad@p                                              cstackCOMRAM 000517
putch@txData                                       cstackCOMRAM 000502
read_prec_or_width@ap                              cstackCOMRAM 000509
read_prec_or_width@c                               cstackCOMRAM 00050D
read_prec_or_width@fmt                             cstackCOMRAM 000507
read_prec_or_width@n                               cstackCOMRAM 00050E
sprintf@ap                                         cstackCOMRAM 00053E
sprintf@f                                          cstackCOMRAM 000540
sprintf@fmt                                        cstackCOMRAM 00053B
sprintf@s                                          cstackCOMRAM 000539
stackhi                                            (abs)        000000
stacklo                                            (abs)        000000
start                                              init         01FFFC
start_initialization                               cinit        0033F0
utoa@d                                             cstackCOMRAM 00051E
utoa@fp                                            cstackCOMRAM 00051C
utoa@i                                             cstackCOMRAM 000523
utoa@p                                             cstackCOMRAM 000520
utoa@w                                             cstackCOMRAM 000521
vfpfcnvrt@ap                                       cstackCOMRAM 000529
vfpfcnvrt@convarg                                  cstackCOMRAM 00052D
vfpfcnvrt@cp                                       cstackCOMRAM 000532
vfpfcnvrt@done                                     cstackCOMRAM 000531
vfpfcnvrt@fmt                                      cstackCOMRAM 000527
vfpfcnvrt@fp                                       cstackCOMRAM 000525
vfprintf@ap                                        cstackCOMRAM 000536
vfprintf@cfmt                                      cstackCOMRAM 000538
vfprintf@fmt                                       cstackCOMRAM 000535
vfprintf@fp                                        cstackCOMRAM 000533


MODULE INFORMATION

Module		Function		Class		Link	Load	Size
C:\Program Files\Microchip\xc8\v2.46\pic\sources\c99\common\nf_fputc.c
		_fputc         		CODE           	2C12	0000	202

C:\Program Files\Microchip\xc8\v2.46\pic\sources\c99\common\nf_fputc.c estimated size: 202

I2C.C
		_I2C_Write     		CODE           	292E	0000	270

I2C.C estimated size: 270

C:\Program Files\Microchip\xc8\v2.46\pic\sources\c99\common\lwdiv.c
		___lwdiv       		CODE           	30DE	0000	116

C:\Program Files\Microchip\xc8\v2.46\pic\sources\c99\common\lwdiv.c estimated size: 116

mcc_generated_files/system/src/interrupt.c
		_INT0_SetInterruptHandler		CODE           	374E	0000	14
		_INT1_SetInterruptHandler		CODE           	3740	0000	14
		_INT2_SetInterruptHandler		CODE           	3732	0000	14
		_INTERRUPT_Initialize		CODE           	3432	0000	64

mcc_generated_files/system/src/interrupt.c estimated size: 106

mcc_generated_files/uart/src/uart1.c
		_UART1_IsTxReady		CODE           	3506	0000	42
		_UART1_Write   		CODE           	377C	0000	8
		_putch         		CODE           	3674	0000	30
		_UART1_FramingErrorCallbackRegister		CODE           	360E	0000	34
		_UART1_OverrunErrorCallbackRegister		CODE           	35EC	0000	34
		_UART1_Initialize		CODE           	2FCA	0000	138
		_UART1_ParityErrorCallbackRegister		CODE           	35CA	0000	34

mcc_generated_files/uart/src/uart1.c estimated size: 320

mcc_generated_files/i2c_host/src/i2c1.c
		_I2C1_Tasks    		CODE           	257C	0000	528
		_I2C1_CallbackRegister		CODE           	3630	0000	34
		_I2C1_WriteStart		CODE           	3472	0000	58
		_I2C1_CounterGet		CODE           	37B0	0000	6
		_I2C1_CounterSet		CODE           	378C	0000	8
		_I2C1_ReadStart		CODE           	35A4	0000	38
		_I2C1_InterruptsClear		CODE           	379C	0000	8
		_I2C1_RestartEnable		CODE           	37A4	0000	6
		_I2C1_DataReceive		CODE           	37BC	0000	6
		_I2C1_IsData   		CODE           	36DA	0000	22
		_I2C1_IsNack   		CODE           	36C4	0000	22
		_I2C1_IsAddr   		CODE           	371C	0000	22
		_I2C1_IsBusy   		CODE           	34DA	0000	44
		_I2C1_ErrorGet 		CODE           	375C	0000	12
		_I2C1_BufferClear		CODE           	3772	0000	10
		_I2C1_BusReset 		CODE           	34AC	0000	46
		_I2C1_Initialize		CODE           	3218	0000	88
		_I2C1_Close    		CODE           	3530	0000	40
		_I2C1_IsBusCol 		CODE           	3706	0000	22
		_I2C1_Write    		CODE           	3270	0000	88
		_I2C1_ErrorFlagsClear		CODE           	3768	0000	10
		_I2C1_StopSend 		CODE           	357E	0000	38
		_I2C1_RestartDisable		CODE           	37AA	0000	6
		_I2C1_DataTransmit		CODE           	3784	0000	8
		_I2C1_AddrTransmit		CODE           	3794	0000	8
		_I2C1_IsBusTimeOut		CODE           	36F0	0000	22
		_I2C1_DefaultCallback		CODE           	37C2	0000	2
		_I2C1_StartSend		CODE           	37B6	0000	6

mcc_generated_files/i2c_host/src/i2c1.c estimated size: 1208

C:\Program Files\Microchip\xc8\v2.46\pic\sources\c99\common\doprnt.c
		_read_prec_or_width		CODE           	2DA4	0000	198
		_vfpfcnvrt     		CODE           	278C	0000	418
		_pad           		CODE           	2F2C	0000	158
		_vfprintf      		CODE           	32C8	0000	78
		_utoa          		CODE           	2A3C	0000	238

C:\Program Files\Microchip\xc8\v2.46\pic\sources\c99\common\doprnt.c estimated size: 1090

C:\Program Files\Microchip\xc8\v2.46\pic\sources\c99\common\nf_sprintf.c
		_sprintf       		CODE           	3364	0000	72

C:\Program Files\Microchip\xc8\v2.46\pic\sources\c99\common\nf_sprintf.c estimated size: 72

mcc_generated_files/system/src/pins.c
		_PIN_MANAGER_Initialize		CODE           	2B2A	0000	232

mcc_generated_files/system/src/pins.c estimated size: 232

shared
		__initialization		CODE           	33F0	0000	60
		_I2C1_Host     		SMALLCONST     	2549	0000	30
		_UART1         		SMALLCONST     	2501	0000	72

shared estimated size: 162

C:\Program Files\Microchip\xc8\v2.46\pic\sources\c99\common\Umul16.c
		___wmul        		CODE           	3558	0000	38

C:\Program Files\Microchip\xc8\v2.46\pic\sources\c99\common\Umul16.c estimated size: 38

C:\Program Files\Microchip\xc8\v2.46\pic\sources\c99\common\nf_fputs.c
		_fputs         		CODE           	33AC	0000	68

C:\Program Files\Microchip\xc8\v2.46\pic\sources\c99\common\nf_fputs.c estimated size: 68

C:\Program Files\Microchip\xc8\v2.46\pic\sources\c99\common\lwmod.c
		___lwmod       		CODE           	3152	0000	100

C:\Program Files\Microchip\xc8\v2.46\pic\sources\c99\common\lwmod.c estimated size: 100

mcc_generated_files/system/src/clock.c
		_CLOCK_Initialize		CODE           	3692	0000	28

mcc_generated_files/system/src/clock.c estimated size: 28

main.c
		_main          		CODE           	2CDC	0000	200

main.c estimated size: 200

mcc_generated_files/system/src/system.c
		_SYSTEM_Initialize		CODE           	36AE	0000	22

mcc_generated_files/system/src/system.c estimated size: 22

LCD.c
		_LCD_PIC_PRINT_STRING		CODE           	31B6	0000	98
		_LCD_PIC_CMD   		CODE           	3316	0000	78
		_LCD_PIC_INIT  		CODE           	3054	0000	138
		_LCD_PIC_PRINT_CHAR		CODE           	3652	0000	34
		_LCD_PIC_SET_CURSOR		CODE           	2E6A	0000	194

LCD.c estimated size: 542

